

Microchip MPLAB XC8 Assembler V2.36 build 20220127204148 
                                                                                               Fri Oct 18 13:48:51 2024

Microchip MPLAB XC8 C Compiler v2.36 (Free license) build 20220127204148 Og1 
     1                           	processor	16F1938
     2                           	pagewidth 120
     3                           	opt	flic
     4                           	psect	idataBANK0,global,class=CODE,delta=2,noexec
     5                           	psect	stringtext1,global,class=STRCODE,delta=2,noexec
     6                           	psect	stringtext2,global,class=STRCODE,delta=2,noexec
     7                           	psect	cinit,global,class=CODE,merge=1,delta=2
     8                           	psect	bssBANK0,global,class=BANK0,space=1,delta=1,noexec
     9                           	psect	dataBANK0,global,class=BANK0,space=1,delta=1,noexec
    10                           	psect	clrtext,global,class=CODE,delta=2
    11                           	psect	cstackCOMMON,global,class=COMMON,space=1,delta=1,noexec
    12                           	psect	cstackBANK0,global,class=BANK0,space=1,delta=1,noexec
    13                           	psect	maintext,global,class=CODE,merge=1,split=1,delta=2
    14                           	psect	text1,local,class=CODE,merge=1,delta=2,group=1
    15                           	psect	text2,local,class=CODE,merge=1,delta=2,group=1
    16                           	psect	text3,local,class=CODE,merge=1,delta=2,group=1
    17                           	psect	text4,local,class=CODE,merge=1,delta=2,group=1
    18                           	psect	text5,local,class=CODE,merge=1,delta=2,group=1
    19                           	psect	text6,local,class=CODE,merge=1,delta=2,group=1
    20                           	psect	text7,local,class=CODE,merge=1,delta=2,group=1
    21                           	psect	text8,local,class=CODE,merge=1,delta=2
    22                           	psect	text9,local,class=CODE,merge=1,delta=2
    23                           	psect	text10,local,class=CODE,merge=1,delta=2
    24                           	psect	text11,local,class=CODE,merge=1,delta=2
    25                           	psect	text12,local,class=CODE,merge=1,delta=2
    26                           	psect	text13,local,class=CODE,merge=1,delta=2
    27                           	psect	text14,local,class=CODE,merge=1,delta=2
    28                           	psect	text15,local,class=CODE,merge=1,delta=2
    29                           	psect	config,global,abs,ovrld,class=CONFIG,space=4,delta=2,noexec
    30                           	dabs	1,0x7E,2
    31  0000                     
    32                           ; Version 2.20
    33                           ; Generated 12/02/2020 GMT
    34                           ; 
    35                           ; Copyright © 2020, Microchip Technology Inc. and its subsidiaries ("Microchip")
    36                           ; All rights reserved.
    37                           ; 
    38                           ; This software is developed by Microchip Technology Inc. and its subsidiaries ("Microch
      +                          ip").
    39                           ; 
    40                           ; Redistribution and use in source and binary forms, with or without modification, are
    41                           ; permitted provided that the following conditions are met:
    42                           ; 
    43                           ;     1. Redistributions of source code must retain the above copyright notice, this lis
      +                          t of
    44                           ;        conditions and the following disclaimer.
    45                           ; 
    46                           ;     2. Redistributions in binary form must reproduce the above copyright notice, this 
      +                          list
    47                           ;        of conditions and the following disclaimer in the documentation and/or other
    48                           ;        materials provided with the distribution.
    49                           ; 
    50                           ;     3. Microchip's name may not be used to endorse or promote products derived from th
      +                          is
    51                           ;        software without specific prior written permission.
    52                           ; 
    53                           ; THIS SOFTWARE IS PROVIDED BY MICROCHIP "AS IS" AND ANY EXPRESS OR IMPLIED WARRANTIES,
    54                           ; INCLUDING, BUT NOT LIMITED TO, THE IMPLIED WARRANTIES OF MERCHANTABILITY AND FITNESS F
      +                          OR
    55                           ; PURPOSE ARE DISCLAIMED.  IN NO EVENT SHALL MICROCHIP BE LIABLE FOR ANY DIRECT, INDIREC
      +                          T,
    56                           ; INCIDENTAL, SPECIAL, EXEMPLARY, OR CONSEQUENTIAL DAMAGES (INCLUDING BUT NOT LIMITED TO
    57                           ; PROCUREMENT OF SUBSTITUTE GOODS OR SERVICES; LOSS OF USE, DATA OR PROFITS; OR BUSINESS
    58                           ; INTERRUPTION) HOWSOEVER CAUSED AND ON ANY THEORY OF LIABILITY, WHETHER IN CONTRACT, ST
      +                          RICT
    59                           ; LIABILITY, OR TORT (INCLUDING NEGLIGENCE OR OTHERWISE) ARISING IN ANY WAY OUT OF THE U
      +                          SE OF
    60                           ; THIS SOFTWARE, EVEN IF ADVISED OF THE POSSIBILITY OF SUCH DAMAGE.
    61                           ; 
    62                           ; 
    63                           ; Code-generator required, PIC16F1938 Definitions
    64                           ; 
    65                           ; SFR Addresses
    66  0000                     	;# 
    67  0001                     	;# 
    68  0002                     	;# 
    69  0003                     	;# 
    70  0004                     	;# 
    71  0005                     	;# 
    72  0006                     	;# 
    73  0007                     	;# 
    74  0008                     	;# 
    75  0009                     	;# 
    76  000A                     	;# 
    77  000B                     	;# 
    78  000C                     	;# 
    79  000D                     	;# 
    80  000E                     	;# 
    81  0010                     	;# 
    82  0011                     	;# 
    83  0012                     	;# 
    84  0013                     	;# 
    85  0015                     	;# 
    86  0016                     	;# 
    87  0016                     	;# 
    88  0017                     	;# 
    89  0018                     	;# 
    90  0019                     	;# 
    91  001A                     	;# 
    92  001B                     	;# 
    93  001C                     	;# 
    94  001E                     	;# 
    95  001F                     	;# 
    96  008C                     	;# 
    97  008D                     	;# 
    98  008E                     	;# 
    99  0090                     	;# 
   100  0091                     	;# 
   101  0092                     	;# 
   102  0093                     	;# 
   103  0095                     	;# 
   104  0096                     	;# 
   105  0097                     	;# 
   106  0098                     	;# 
   107  0099                     	;# 
   108  009A                     	;# 
   109  009B                     	;# 
   110  009B                     	;# 
   111  009C                     	;# 
   112  009D                     	;# 
   113  009E                     	;# 
   114  010C                     	;# 
   115  010D                     	;# 
   116  010E                     	;# 
   117  0110                     	;# 
   118  0111                     	;# 
   119  0112                     	;# 
   120  0113                     	;# 
   121  0114                     	;# 
   122  0115                     	;# 
   123  0116                     	;# 
   124  0117                     	;# 
   125  0118                     	;# 
   126  0119                     	;# 
   127  011A                     	;# 
   128  011B                     	;# 
   129  011D                     	;# 
   130  018C                     	;# 
   131  018D                     	;# 
   132  0191                     	;# 
   133  0191                     	;# 
   134  0192                     	;# 
   135  0193                     	;# 
   136  0193                     	;# 
   137  0193                     	;# 
   138  0194                     	;# 
   139  0195                     	;# 
   140  0196                     	;# 
   141  0199                     	;# 
   142  019A                     	;# 
   143  019B                     	;# 
   144  019B                     	;# 
   145  019B                     	;# 
   146  019B                     	;# 
   147  019C                     	;# 
   148  019C                     	;# 
   149  019D                     	;# 
   150  019E                     	;# 
   151  019F                     	;# 
   152  020D                     	;# 
   153  0210                     	;# 
   154  0211                     	;# 
   155  0212                     	;# 
   156  0213                     	;# 
   157  0214                     	;# 
   158  0215                     	;# 
   159  0215                     	;# 
   160  0216                     	;# 
   161  0217                     	;# 
   162  0291                     	;# 
   163  0291                     	;# 
   164  0292                     	;# 
   165  0293                     	;# 
   166  0294                     	;# 
   167  0295                     	;# 
   168  0295                     	;# 
   169  0296                     	;# 
   170  0298                     	;# 
   171  0298                     	;# 
   172  0299                     	;# 
   173  029A                     	;# 
   174  029B                     	;# 
   175  029C                     	;# 
   176  029C                     	;# 
   177  029D                     	;# 
   178  029E                     	;# 
   179  029F                     	;# 
   180  0311                     	;# 
   181  0311                     	;# 
   182  0312                     	;# 
   183  0313                     	;# 
   184  0314                     	;# 
   185  0315                     	;# 
   186  0315                     	;# 
   187  0316                     	;# 
   188  0318                     	;# 
   189  0318                     	;# 
   190  0319                     	;# 
   191  031A                     	;# 
   192  031C                     	;# 
   193  031C                     	;# 
   194  031D                     	;# 
   195  031E                     	;# 
   196  0394                     	;# 
   197  0395                     	;# 
   198  0396                     	;# 
   199  0415                     	;# 
   200  0416                     	;# 
   201  0417                     	;# 
   202  041C                     	;# 
   203  041D                     	;# 
   204  041E                     	;# 
   205  0791                     	;# 
   206  0792                     	;# 
   207  0793                     	;# 
   208  0794                     	;# 
   209  0795                     	;# 
   210  0798                     	;# 
   211  0799                     	;# 
   212  07A0                     	;# 
   213  07A1                     	;# 
   214  07A3                     	;# 
   215  07A4                     	;# 
   216  07A6                     	;# 
   217  07A7                     	;# 
   218  07A9                     	;# 
   219  07AA                     	;# 
   220  0FE4                     	;# 
   221  0FE5                     	;# 
   222  0FE6                     	;# 
   223  0FE7                     	;# 
   224  0FE8                     	;# 
   225  0FE9                     	;# 
   226  0FEA                     	;# 
   227  0FEB                     	;# 
   228  0FED                     	;# 
   229  0FEE                     	;# 
   230  0FEF                     	;# 
   231  0000                     	;# 
   232  0001                     	;# 
   233  0002                     	;# 
   234  0003                     	;# 
   235  0004                     	;# 
   236  0005                     	;# 
   237  0006                     	;# 
   238  0007                     	;# 
   239  0008                     	;# 
   240  0009                     	;# 
   241  000A                     	;# 
   242  000B                     	;# 
   243  000C                     	;# 
   244  000D                     	;# 
   245  000E                     	;# 
   246  0010                     	;# 
   247  0011                     	;# 
   248  0012                     	;# 
   249  0013                     	;# 
   250  0015                     	;# 
   251  0016                     	;# 
   252  0016                     	;# 
   253  0017                     	;# 
   254  0018                     	;# 
   255  0019                     	;# 
   256  001A                     	;# 
   257  001B                     	;# 
   258  001C                     	;# 
   259  001E                     	;# 
   260  001F                     	;# 
   261  008C                     	;# 
   262  008D                     	;# 
   263  008E                     	;# 
   264  0090                     	;# 
   265  0091                     	;# 
   266  0092                     	;# 
   267  0093                     	;# 
   268  0095                     	;# 
   269  0096                     	;# 
   270  0097                     	;# 
   271  0098                     	;# 
   272  0099                     	;# 
   273  009A                     	;# 
   274  009B                     	;# 
   275  009B                     	;# 
   276  009C                     	;# 
   277  009D                     	;# 
   278  009E                     	;# 
   279  010C                     	;# 
   280  010D                     	;# 
   281  010E                     	;# 
   282  0110                     	;# 
   283  0111                     	;# 
   284  0112                     	;# 
   285  0113                     	;# 
   286  0114                     	;# 
   287  0115                     	;# 
   288  0116                     	;# 
   289  0117                     	;# 
   290  0118                     	;# 
   291  0119                     	;# 
   292  011A                     	;# 
   293  011B                     	;# 
   294  011D                     	;# 
   295  018C                     	;# 
   296  018D                     	;# 
   297  0191                     	;# 
   298  0191                     	;# 
   299  0192                     	;# 
   300  0193                     	;# 
   301  0193                     	;# 
   302  0193                     	;# 
   303  0194                     	;# 
   304  0195                     	;# 
   305  0196                     	;# 
   306  0199                     	;# 
   307  019A                     	;# 
   308  019B                     	;# 
   309  019B                     	;# 
   310  019B                     	;# 
   311  019B                     	;# 
   312  019C                     	;# 
   313  019C                     	;# 
   314  019D                     	;# 
   315  019E                     	;# 
   316  019F                     	;# 
   317  020D                     	;# 
   318  0210                     	;# 
   319  0211                     	;# 
   320  0212                     	;# 
   321  0213                     	;# 
   322  0214                     	;# 
   323  0215                     	;# 
   324  0215                     	;# 
   325  0216                     	;# 
   326  0217                     	;# 
   327  0291                     	;# 
   328  0291                     	;# 
   329  0292                     	;# 
   330  0293                     	;# 
   331  0294                     	;# 
   332  0295                     	;# 
   333  0295                     	;# 
   334  0296                     	;# 
   335  0298                     	;# 
   336  0298                     	;# 
   337  0299                     	;# 
   338  029A                     	;# 
   339  029B                     	;# 
   340  029C                     	;# 
   341  029C                     	;# 
   342  029D                     	;# 
   343  029E                     	;# 
   344  029F                     	;# 
   345  0311                     	;# 
   346  0311                     	;# 
   347  0312                     	;# 
   348  0313                     	;# 
   349  0314                     	;# 
   350  0315                     	;# 
   351  0315                     	;# 
   352  0316                     	;# 
   353  0318                     	;# 
   354  0318                     	;# 
   355  0319                     	;# 
   356  031A                     	;# 
   357  031C                     	;# 
   358  031C                     	;# 
   359  031D                     	;# 
   360  031E                     	;# 
   361  0394                     	;# 
   362  0395                     	;# 
   363  0396                     	;# 
   364  0415                     	;# 
   365  0416                     	;# 
   366  0417                     	;# 
   367  041C                     	;# 
   368  041D                     	;# 
   369  041E                     	;# 
   370  0791                     	;# 
   371  0792                     	;# 
   372  0793                     	;# 
   373  0794                     	;# 
   374  0795                     	;# 
   375  0798                     	;# 
   376  0799                     	;# 
   377  07A0                     	;# 
   378  07A1                     	;# 
   379  07A3                     	;# 
   380  07A4                     	;# 
   381  07A6                     	;# 
   382  07A7                     	;# 
   383  07A9                     	;# 
   384  07AA                     	;# 
   385  0FE4                     	;# 
   386  0FE5                     	;# 
   387  0FE6                     	;# 
   388  0FE7                     	;# 
   389  0FE8                     	;# 
   390  0FE9                     	;# 
   391  0FEA                     	;# 
   392  0FEB                     	;# 
   393  0FED                     	;# 
   394  0FEE                     	;# 
   395  0FEF                     	;# 
   396  0000                     	;# 
   397  0001                     	;# 
   398  0002                     	;# 
   399  0003                     	;# 
   400  0004                     	;# 
   401  0005                     	;# 
   402  0006                     	;# 
   403  0007                     	;# 
   404  0008                     	;# 
   405  0009                     	;# 
   406  000A                     	;# 
   407  000B                     	;# 
   408  000C                     	;# 
   409  000D                     	;# 
   410  000E                     	;# 
   411  0010                     	;# 
   412  0011                     	;# 
   413  0012                     	;# 
   414  0013                     	;# 
   415  0015                     	;# 
   416  0016                     	;# 
   417  0016                     	;# 
   418  0017                     	;# 
   419  0018                     	;# 
   420  0019                     	;# 
   421  001A                     	;# 
   422  001B                     	;# 
   423  001C                     	;# 
   424  001E                     	;# 
   425  001F                     	;# 
   426  008C                     	;# 
   427  008D                     	;# 
   428  008E                     	;# 
   429  0090                     	;# 
   430  0091                     	;# 
   431  0092                     	;# 
   432  0093                     	;# 
   433  0095                     	;# 
   434  0096                     	;# 
   435  0097                     	;# 
   436  0098                     	;# 
   437  0099                     	;# 
   438  009A                     	;# 
   439  009B                     	;# 
   440  009B                     	;# 
   441  009C                     	;# 
   442  009D                     	;# 
   443  009E                     	;# 
   444  010C                     	;# 
   445  010D                     	;# 
   446  010E                     	;# 
   447  0110                     	;# 
   448  0111                     	;# 
   449  0112                     	;# 
   450  0113                     	;# 
   451  0114                     	;# 
   452  0115                     	;# 
   453  0116                     	;# 
   454  0117                     	;# 
   455  0118                     	;# 
   456  0119                     	;# 
   457  011A                     	;# 
   458  011B                     	;# 
   459  011D                     	;# 
   460  018C                     	;# 
   461  018D                     	;# 
   462  0191                     	;# 
   463  0191                     	;# 
   464  0192                     	;# 
   465  0193                     	;# 
   466  0193                     	;# 
   467  0193                     	;# 
   468  0194                     	;# 
   469  0195                     	;# 
   470  0196                     	;# 
   471  0199                     	;# 
   472  019A                     	;# 
   473  019B                     	;# 
   474  019B                     	;# 
   475  019B                     	;# 
   476  019B                     	;# 
   477  019C                     	;# 
   478  019C                     	;# 
   479  019D                     	;# 
   480  019E                     	;# 
   481  019F                     	;# 
   482  020D                     	;# 
   483  0210                     	;# 
   484  0211                     	;# 
   485  0212                     	;# 
   486  0213                     	;# 
   487  0214                     	;# 
   488  0215                     	;# 
   489  0215                     	;# 
   490  0216                     	;# 
   491  0217                     	;# 
   492  0291                     	;# 
   493  0291                     	;# 
   494  0292                     	;# 
   495  0293                     	;# 
   496  0294                     	;# 
   497  0295                     	;# 
   498  0295                     	;# 
   499  0296                     	;# 
   500  0298                     	;# 
   501  0298                     	;# 
   502  0299                     	;# 
   503  029A                     	;# 
   504  029B                     	;# 
   505  029C                     	;# 
   506  029C                     	;# 
   507  029D                     	;# 
   508  029E                     	;# 
   509  029F                     	;# 
   510  0311                     	;# 
   511  0311                     	;# 
   512  0312                     	;# 
   513  0313                     	;# 
   514  0314                     	;# 
   515  0315                     	;# 
   516  0315                     	;# 
   517  0316                     	;# 
   518  0318                     	;# 
   519  0318                     	;# 
   520  0319                     	;# 
   521  031A                     	;# 
   522  031C                     	;# 
   523  031C                     	;# 
   524  031D                     	;# 
   525  031E                     	;# 
   526  0394                     	;# 
   527  0395                     	;# 
   528  0396                     	;# 
   529  0415                     	;# 
   530  0416                     	;# 
   531  0417                     	;# 
   532  041C                     	;# 
   533  041D                     	;# 
   534  041E                     	;# 
   535  0791                     	;# 
   536  0792                     	;# 
   537  0793                     	;# 
   538  0794                     	;# 
   539  0795                     	;# 
   540  0798                     	;# 
   541  0799                     	;# 
   542  07A0                     	;# 
   543  07A1                     	;# 
   544  07A3                     	;# 
   545  07A4                     	;# 
   546  07A6                     	;# 
   547  07A7                     	;# 
   548  07A9                     	;# 
   549  07AA                     	;# 
   550  0FE4                     	;# 
   551  0FE5                     	;# 
   552  0FE6                     	;# 
   553  0FE7                     	;# 
   554  0FE8                     	;# 
   555  0FE9                     	;# 
   556  0FEA                     	;# 
   557  0FEB                     	;# 
   558  0FED                     	;# 
   559  0FEE                     	;# 
   560  0FEF                     	;# 
   561  0000                     	;# 
   562  0001                     	;# 
   563  0002                     	;# 
   564  0003                     	;# 
   565  0004                     	;# 
   566  0005                     	;# 
   567  0006                     	;# 
   568  0007                     	;# 
   569  0008                     	;# 
   570  0009                     	;# 
   571  000A                     	;# 
   572  000B                     	;# 
   573  000C                     	;# 
   574  000D                     	;# 
   575  000E                     	;# 
   576  0010                     	;# 
   577  0011                     	;# 
   578  0012                     	;# 
   579  0013                     	;# 
   580  0015                     	;# 
   581  0016                     	;# 
   582  0016                     	;# 
   583  0017                     	;# 
   584  0018                     	;# 
   585  0019                     	;# 
   586  001A                     	;# 
   587  001B                     	;# 
   588  001C                     	;# 
   589  001E                     	;# 
   590  001F                     	;# 
   591  008C                     	;# 
   592  008D                     	;# 
   593  008E                     	;# 
   594  0090                     	;# 
   595  0091                     	;# 
   596  0092                     	;# 
   597  0093                     	;# 
   598  0095                     	;# 
   599  0096                     	;# 
   600  0097                     	;# 
   601  0098                     	;# 
   602  0099                     	;# 
   603  009A                     	;# 
   604  009B                     	;# 
   605  009B                     	;# 
   606  009C                     	;# 
   607  009D                     	;# 
   608  009E                     	;# 
   609  010C                     	;# 
   610  010D                     	;# 
   611  010E                     	;# 
   612  0110                     	;# 
   613  0111                     	;# 
   614  0112                     	;# 
   615  0113                     	;# 
   616  0114                     	;# 
   617  0115                     	;# 
   618  0116                     	;# 
   619  0117                     	;# 
   620  0118                     	;# 
   621  0119                     	;# 
   622  011A                     	;# 
   623  011B                     	;# 
   624  011D                     	;# 
   625  018C                     	;# 
   626  018D                     	;# 
   627  0191                     	;# 
   628  0191                     	;# 
   629  0192                     	;# 
   630  0193                     	;# 
   631  0193                     	;# 
   632  0193                     	;# 
   633  0194                     	;# 
   634  0195                     	;# 
   635  0196                     	;# 
   636  0199                     	;# 
   637  019A                     	;# 
   638  019B                     	;# 
   639  019B                     	;# 
   640  019B                     	;# 
   641  019B                     	;# 
   642  019C                     	;# 
   643  019C                     	;# 
   644  019D                     	;# 
   645  019E                     	;# 
   646  019F                     	;# 
   647  020D                     	;# 
   648  0210                     	;# 
   649  0211                     	;# 
   650  0212                     	;# 
   651  0213                     	;# 
   652  0214                     	;# 
   653  0215                     	;# 
   654  0215                     	;# 
   655  0216                     	;# 
   656  0217                     	;# 
   657  0291                     	;# 
   658  0291                     	;# 
   659  0292                     	;# 
   660  0293                     	;# 
   661  0294                     	;# 
   662  0295                     	;# 
   663  0295                     	;# 
   664  0296                     	;# 
   665  0298                     	;# 
   666  0298                     	;# 
   667  0299                     	;# 
   668  029A                     	;# 
   669  029B                     	;# 
   670  029C                     	;# 
   671  029C                     	;# 
   672  029D                     	;# 
   673  029E                     	;# 
   674  029F                     	;# 
   675  0311                     	;# 
   676  0311                     	;# 
   677  0312                     	;# 
   678  0313                     	;# 
   679  0314                     	;# 
   680  0315                     	;# 
   681  0315                     	;# 
   682  0316                     	;# 
   683  0318                     	;# 
   684  0318                     	;# 
   685  0319                     	;# 
   686  031A                     	;# 
   687  031C                     	;# 
   688  031C                     	;# 
   689  031D                     	;# 
   690  031E                     	;# 
   691  0394                     	;# 
   692  0395                     	;# 
   693  0396                     	;# 
   694  0415                     	;# 
   695  0416                     	;# 
   696  0417                     	;# 
   697  041C                     	;# 
   698  041D                     	;# 
   699  041E                     	;# 
   700  0791                     	;# 
   701  0792                     	;# 
   702  0793                     	;# 
   703  0794                     	;# 
   704  0795                     	;# 
   705  0798                     	;# 
   706  0799                     	;# 
   707  07A0                     	;# 
   708  07A1                     	;# 
   709  07A3                     	;# 
   710  07A4                     	;# 
   711  07A6                     	;# 
   712  07A7                     	;# 
   713  07A9                     	;# 
   714  07AA                     	;# 
   715  0FE4                     	;# 
   716  0FE5                     	;# 
   717  0FE6                     	;# 
   718  0FE7                     	;# 
   719  0FE8                     	;# 
   720  0FE9                     	;# 
   721  0FEA                     	;# 
   722  0FEB                     	;# 
   723  0FED                     	;# 
   724  0FEE                     	;# 
   725  0FEF                     	;# 
   726  0000                     	;# 
   727  0001                     	;# 
   728  0002                     	;# 
   729  0003                     	;# 
   730  0004                     	;# 
   731  0005                     	;# 
   732  0006                     	;# 
   733  0007                     	;# 
   734  0008                     	;# 
   735  0009                     	;# 
   736  000A                     	;# 
   737  000B                     	;# 
   738  000C                     	;# 
   739  000D                     	;# 
   740  000E                     	;# 
   741  0010                     	;# 
   742  0011                     	;# 
   743  0012                     	;# 
   744  0013                     	;# 
   745  0015                     	;# 
   746  0016                     	;# 
   747  0016                     	;# 
   748  0017                     	;# 
   749  0018                     	;# 
   750  0019                     	;# 
   751  001A                     	;# 
   752  001B                     	;# 
   753  001C                     	;# 
   754  001E                     	;# 
   755  001F                     	;# 
   756  008C                     	;# 
   757  008D                     	;# 
   758  008E                     	;# 
   759  0090                     	;# 
   760  0091                     	;# 
   761  0092                     	;# 
   762  0093                     	;# 
   763  0095                     	;# 
   764  0096                     	;# 
   765  0097                     	;# 
   766  0098                     	;# 
   767  0099                     	;# 
   768  009A                     	;# 
   769  009B                     	;# 
   770  009B                     	;# 
   771  009C                     	;# 
   772  009D                     	;# 
   773  009E                     	;# 
   774  010C                     	;# 
   775  010D                     	;# 
   776  010E                     	;# 
   777  0110                     	;# 
   778  0111                     	;# 
   779  0112                     	;# 
   780  0113                     	;# 
   781  0114                     	;# 
   782  0115                     	;# 
   783  0116                     	;# 
   784  0117                     	;# 
   785  0118                     	;# 
   786  0119                     	;# 
   787  011A                     	;# 
   788  011B                     	;# 
   789  011D                     	;# 
   790  018C                     	;# 
   791  018D                     	;# 
   792  0191                     	;# 
   793  0191                     	;# 
   794  0192                     	;# 
   795  0193                     	;# 
   796  0193                     	;# 
   797  0193                     	;# 
   798  0194                     	;# 
   799  0195                     	;# 
   800  0196                     	;# 
   801  0199                     	;# 
   802  019A                     	;# 
   803  019B                     	;# 
   804  019B                     	;# 
   805  019B                     	;# 
   806  019B                     	;# 
   807  019C                     	;# 
   808  019C                     	;# 
   809  019D                     	;# 
   810  019E                     	;# 
   811  019F                     	;# 
   812  020D                     	;# 
   813  0210                     	;# 
   814  0211                     	;# 
   815  0212                     	;# 
   816  0213                     	;# 
   817  0214                     	;# 
   818  0215                     	;# 
   819  0215                     	;# 
   820  0216                     	;# 
   821  0217                     	;# 
   822  0291                     	;# 
   823  0291                     	;# 
   824  0292                     	;# 
   825  0293                     	;# 
   826  0294                     	;# 
   827  0295                     	;# 
   828  0295                     	;# 
   829  0296                     	;# 
   830  0298                     	;# 
   831  0298                     	;# 
   832  0299                     	;# 
   833  029A                     	;# 
   834  029B                     	;# 
   835  029C                     	;# 
   836  029C                     	;# 
   837  029D                     	;# 
   838  029E                     	;# 
   839  029F                     	;# 
   840  0311                     	;# 
   841  0311                     	;# 
   842  0312                     	;# 
   843  0313                     	;# 
   844  0314                     	;# 
   845  0315                     	;# 
   846  0315                     	;# 
   847  0316                     	;# 
   848  0318                     	;# 
   849  0318                     	;# 
   850  0319                     	;# 
   851  031A                     	;# 
   852  031C                     	;# 
   853  031C                     	;# 
   854  031D                     	;# 
   855  031E                     	;# 
   856  0394                     	;# 
   857  0395                     	;# 
   858  0396                     	;# 
   859  0415                     	;# 
   860  0416                     	;# 
   861  0417                     	;# 
   862  041C                     	;# 
   863  041D                     	;# 
   864  041E                     	;# 
   865  0791                     	;# 
   866  0792                     	;# 
   867  0793                     	;# 
   868  0794                     	;# 
   869  0795                     	;# 
   870  0798                     	;# 
   871  0799                     	;# 
   872  07A0                     	;# 
   873  07A1                     	;# 
   874  07A3                     	;# 
   875  07A4                     	;# 
   876  07A6                     	;# 
   877  07A7                     	;# 
   878  07A9                     	;# 
   879  07AA                     	;# 
   880  0FE4                     	;# 
   881  0FE5                     	;# 
   882  0FE6                     	;# 
   883  0FE7                     	;# 
   884  0FE8                     	;# 
   885  0FE9                     	;# 
   886  0FEA                     	;# 
   887  0FEB                     	;# 
   888  0FED                     	;# 
   889  0FEE                     	;# 
   890  0FEF                     	;# 
   891                           
   892                           	psect	idataBANK0
   893  0F7F                     __pidataBANK0:
   894                           
   895                           ;initializer for _AD_CNT
   896  0F7F  34FA               	retlw	250
   897  0F80  3400               	retlw	0
   898                           
   899                           	psect	stringtext1
   900  1000                     __pstringtext1:
   901  1000                     _seg:
   902  1000  343F               	retlw	63
   903  1001  3406               	retlw	6
   904  1002  345B               	retlw	91
   905  1003  344F               	retlw	79
   906  1004  3466               	retlw	102
   907  1005  346D               	retlw	109
   908  1006  347D               	retlw	125
   909  1007  3427               	retlw	39
   910  1008  347F               	retlw	127
   911  1009  346F               	retlw	111
   912  100A                     __end_of_seg:
   913                           
   914                           	psect	stringtext2
   915  100A                     __pstringtext2:
   916  100A                     _digit:
   917  100A  340E               	retlw	14
   918  100B  340D               	retlw	13
   919  100C  340B               	retlw	11
   920  100D  3407               	retlw	7
   921  100E                     __end_of_digit:
   922  000E                     _PORTC	set	14
   923  000D                     _PORTB	set	13
   924  009D                     _ADCON0bits	set	157
   925  009D                     _ADCON0	set	157
   926  009C                     _ADRESH	set	156
   927  009B                     _ADRESL	set	155
   928  009E                     _ADCON1	set	158
   929  0097                     _WDTCON	set	151
   930  0098                     _OSCTUNE	set	152
   931  0099                     _OSCCON	set	153
   932  0095                     _OPTION_REGbits	set	149
   933  008E                     _TRISC	set	142
   934  008D                     _TRISB	set	141
   935  008C                     _TRISA	set	140
   936  0090                     _TRISE	set	144
   937  010E                     _LATCbits	set	270
   938  0116                     _BORCON	set	278
   939  011D                     _APFCON	set	285
   940  010E                     _LATC	set	270
   941  010D                     _LATB	set	269
   942  010C                     _LATA	set	268
   943  0110                     _LATE	set	272
   944  018C                     _ANSELA	set	396
   945  018D                     _ANSELB	set	397
   946  020D                     _WPUB	set	525
   947  0210                     _WPUE	set	528
   948                           
   949                           	psect	cinit
   950  07ED                     start_initialization:	
   951                           ; #config settings
   952                           
   953  07ED                     __initialization:
   954                           
   955                           ; Initialize objects allocated to BANK0
   956  07ED  318F  277F  3187   	fcall	__pidataBANK0	;fetch initializer
   957  07F0  00E9               	movwf	__pdataBANK0& (0+127)
   958  07F1  318F  2780  3187   	fcall	__pidataBANK0+1	;fetch initializer
   959  07F4  00EA               	movwf	(__pdataBANK0+1)& (0+127)
   960                           
   961                           ; Clear objects allocated to BANK0
   962  07F5  3059               	movlw	low __pbssBANK0
   963  07F6  0084               	movwf	4
   964  07F7  3000               	movlw	high __pbssBANK0
   965  07F8  0085               	movwf	5
   966  07F9  3010               	movlw	16
   967  07FA  318F  2785  3187   	fcall	clear_ram0
   968  07FD                     end_of_initialization:	
   969                           ;End of C runtime variable initialization code
   970                           
   971  07FD                     __end_of__initialization:
   972  07FD  0020               	movlb	0
   973  07FE  3182  2A8C         	ljmp	_main	;jump to C main() function
   974                           
   975                           	psect	bssBANK0
   976  0059                     __pbssBANK0:
   977  0059                     _Voltage:
   978  0059                     	ds	4
   979  005D                     _ADC_result:
   980  005D                     	ds	2
   981  005F                     _count_scale:
   982  005F                     	ds	2
   983  0061                     _digit_counter:
   984  0061                     	ds	2
   985  0063                     _num_counter:
   986  0063                     	ds	2
   987  0065                     _num:
   988  0065                     	ds	2
   989  0067                     _ADC_InterruptHandler:
   990  0067                     	ds	2
   991                           
   992                           	psect	dataBANK0
   993  0069                     __pdataBANK0:
   994  0069                     _AD_CNT:
   995  0069                     	ds	2
   996                           
   997                           	psect	clrtext
   998  0F85                     clear_ram0:	
   999                           ;	Called with FSR0 containing the base address, and
  1000                           ;	WREG with the size to clear
  1001                           
  1002  0F85  0064               	clrwdt	;clear the watchdog before getting into this loop
  1003  0F86                     clrloop0:
  1004  0F86  0180               	clrf	0	;clear RAM location pointed to by FSR
  1005  0F87  3101               	addfsr 0,1
  1006  0F88  0B89               	decfsz	9,f	;Have we reached the end of clearing yet?
  1007  0F89  2F86               	goto	clrloop0	;have we reached the end yet?
  1008  0F8A  3400               	retlw	0	;all done for this memory range, return
  1009                           
  1010                           	psect	cstackCOMMON
  1011  0070                     __pcstackCOMMON:
  1012  0070                     ?_OSCILLATOR_Initialize:
  1013  0070                     ??_OSCILLATOR_Initialize:	
  1014                           ; 1 bytes @ 0x0
  1015                           
  1016  0070                     ?_WDT_Initialize:	
  1017                           ; 1 bytes @ 0x0
  1018                           
  1019  0070                     ??_WDT_Initialize:	
  1020                           ; 1 bytes @ 0x0
  1021                           
  1022  0070                     ?_ADC_Initialize:	
  1023                           ; 1 bytes @ 0x0
  1024                           
  1025  0070                     ??_ADC_Initialize:	
  1026                           ; 1 bytes @ 0x0
  1027                           
  1028  0070                     ?_Segments_Init:	
  1029                           ; 1 bytes @ 0x0
  1030                           
  1031  0070                     ??_Segments_Init:	
  1032                           ; 1 bytes @ 0x0
  1033                           
  1034  0070                     ?_PIN_MANAGER_Initialize:	
  1035                           ; 1 bytes @ 0x0
  1036                           
  1037  0070                     ??_PIN_MANAGER_Initialize:	
  1038                           ; 1 bytes @ 0x0
  1039                           
  1040  0070                     ?_SYSTEM_Initialize:	
  1041                           ; 1 bytes @ 0x0
  1042                           
  1043  0070                     ??_SYSTEM_Initialize:	
  1044                           ; 1 bytes @ 0x0
  1045                           
  1046  0070                     ?_main:	
  1047                           ; 1 bytes @ 0x0
  1048                           
  1049  0070                     ?__Umul8_16:	
  1050                           ; 1 bytes @ 0x0
  1051                           
  1052  0070                     ?_ADC_GetConversion:	
  1053                           ; 2 bytes @ 0x0
  1054                           
  1055  0070                     ?___aldiv:	
  1056                           ; 2 bytes @ 0x0
  1057                           
  1058  0070                     ?___xxtofl:	
  1059                           ; 4 bytes @ 0x0
  1060                           
  1061  0070                     __Umul8_16@multiplicand:	
  1062                           ; 4 bytes @ 0x0
  1063                           
  1064  0070                     ___aldiv@divisor:	
  1065                           ; 1 bytes @ 0x0
  1066                           
  1067  0070                     ___xxtofl@val:	
  1068                           ; 4 bytes @ 0x0
  1069                           
  1070                           
  1071                           ; 4 bytes @ 0x0
  1072  0070                     	ds	1
  1073  0071                     Segments_Init@i:
  1074                           
  1075                           ; 2 bytes @ 0x1
  1076  0071                     	ds	1
  1077  0072                     ??__Umul8_16:
  1078  0072                     ??_ADC_GetConversion:	
  1079                           ; 1 bytes @ 0x2
  1080                           
  1081                           
  1082                           ; 1 bytes @ 0x2
  1083  0072                     	ds	1
  1084  0073                     ADC_GetConversion@channel:
  1085  0073                     Segments_Init@z:	
  1086                           ; 1 bytes @ 0x3
  1087                           
  1088                           
  1089                           ; 2 bytes @ 0x3
  1090  0073                     	ds	1
  1091  0074                     ??___xxtofl:
  1092  0074                     __Umul8_16@product:	
  1093                           ; 1 bytes @ 0x4
  1094                           
  1095  0074                     ___aldiv@dividend:	
  1096                           ; 2 bytes @ 0x4
  1097                           
  1098                           
  1099                           ; 4 bytes @ 0x4
  1100  0074                     	ds	2
  1101  0076                     __Umul8_16@word_mpld:
  1102                           
  1103                           ; 2 bytes @ 0x6
  1104  0076                     	ds	2
  1105  0078                     ??___aldiv:
  1106  0078                     __Umul8_16@multiplier:	
  1107                           ; 1 bytes @ 0x8
  1108                           
  1109  0078                     ___xxtofl@sign:	
  1110                           ; 1 bytes @ 0x8
  1111                           
  1112                           
  1113                           ; 1 bytes @ 0x8
  1114  0078                     	ds	1
  1115  0079                     ??___almod:
  1116  0079                     ___xxtofl@exp:	
  1117                           ; 1 bytes @ 0x9
  1118                           
  1119                           
  1120                           ; 1 bytes @ 0x9
  1121  0079                     	ds	1
  1122  007A                     ___almod@counter:
  1123  007A                     ___xxtofl@arg:	
  1124                           ; 1 bytes @ 0xA
  1125                           
  1126                           
  1127                           ; 4 bytes @ 0xA
  1128  007A                     	ds	1
  1129  007B                     ___almod@sign:
  1130                           
  1131                           ; 1 bytes @ 0xB
  1132  007B                     	ds	1
  1133  007C                     ??_Segments_Set:
  1134                           
  1135                           ; 1 bytes @ 0xC
  1136  007C                     	ds	2
  1137                           
  1138                           	psect	cstackBANK0
  1139  0020                     __pcstackBANK0:
  1140  0020                     ?___flmul:
  1141  0020                     ___aldiv@counter:	
  1142                           ; 4 bytes @ 0x0
  1143                           
  1144  0020                     ___flmul@b:	
  1145                           ; 1 bytes @ 0x0
  1146                           
  1147                           
  1148                           ; 4 bytes @ 0x0
  1149  0020                     	ds	1
  1150  0021                     ___aldiv@sign:
  1151                           
  1152                           ; 1 bytes @ 0x1
  1153  0021                     	ds	1
  1154  0022                     ___aldiv@quotient:
  1155                           
  1156                           ; 4 bytes @ 0x2
  1157  0022                     	ds	2
  1158  0024                     ___flmul@a:
  1159                           
  1160                           ; 4 bytes @ 0x4
  1161  0024                     	ds	2
  1162  0026                     ?___almod:
  1163  0026                     ___almod@divisor:	
  1164                           ; 4 bytes @ 0x6
  1165                           
  1166                           
  1167                           ; 4 bytes @ 0x6
  1168  0026                     	ds	2
  1169  0028                     ??___flmul:
  1170                           
  1171                           ; 1 bytes @ 0x8
  1172  0028                     	ds	2
  1173  002A                     ___almod@dividend:
  1174                           
  1175                           ; 4 bytes @ 0xA
  1176  002A                     	ds	3
  1177  002D                     ___flmul@sign:
  1178                           
  1179                           ; 1 bytes @ 0xD
  1180  002D                     	ds	1
  1181  002E                     ?_Segments_Set:
  1182  002E                     Segments_Set@fnc_number:	
  1183                           ; 1 bytes @ 0xE
  1184                           
  1185  002E                     ___flmul@grs:	
  1186                           ; 2 bytes @ 0xE
  1187                           
  1188                           
  1189                           ; 4 bytes @ 0xE
  1190  002E                     	ds	2
  1191  0030                     Segments_Set@fnc_digit:
  1192                           
  1193                           ; 2 bytes @ 0x10
  1194  0030                     	ds	2
  1195  0032                     ___flmul@aexp:
  1196                           
  1197                           ; 1 bytes @ 0x12
  1198  0032                     	ds	1
  1199  0033                     ___flmul@bexp:
  1200                           
  1201                           ; 1 bytes @ 0x13
  1202  0033                     	ds	1
  1203  0034                     ___flmul@prod:
  1204                           
  1205                           ; 4 bytes @ 0x14
  1206  0034                     	ds	4
  1207  0038                     ___flmul@temp:
  1208                           
  1209                           ; 2 bytes @ 0x18
  1210  0038                     	ds	2
  1211  003A                     ?___fltol:
  1212  003A                     ?___fldiv:	
  1213                           ; 4 bytes @ 0x1A
  1214                           
  1215  003A                     ___fltol@f1:	
  1216                           ; 4 bytes @ 0x1A
  1217                           
  1218  003A                     ___fldiv@a:	
  1219                           ; 4 bytes @ 0x1A
  1220                           
  1221                           
  1222                           ; 4 bytes @ 0x1A
  1223  003A                     	ds	4
  1224  003E                     ??___fltol:
  1225  003E                     ___fldiv@b:	
  1226                           ; 1 bytes @ 0x1E
  1227                           
  1228                           
  1229                           ; 4 bytes @ 0x1E
  1230  003E                     	ds	4
  1231  0042                     ??___fldiv:
  1232                           
  1233                           ; 1 bytes @ 0x22
  1234  0042                     	ds	1
  1235  0043                     ___fltol@sign1:
  1236                           
  1237                           ; 1 bytes @ 0x23
  1238  0043                     	ds	1
  1239  0044                     ___fltol@exp1:
  1240                           
  1241                           ; 1 bytes @ 0x24
  1242  0044                     	ds	3
  1243  0047                     ___fldiv@rem:
  1244                           
  1245                           ; 4 bytes @ 0x27
  1246  0047                     	ds	4
  1247  004B                     ___fldiv@sign:
  1248                           
  1249                           ; 1 bytes @ 0x2B
  1250  004B                     	ds	1
  1251  004C                     ___fldiv@new_exp:
  1252                           
  1253                           ; 2 bytes @ 0x2C
  1254  004C                     	ds	2
  1255  004E                     ___fldiv@grs:
  1256                           
  1257                           ; 4 bytes @ 0x2E
  1258  004E                     	ds	4
  1259  0052                     ___fldiv@bexp:
  1260                           
  1261                           ; 1 bytes @ 0x32
  1262  0052                     	ds	1
  1263  0053                     ___fldiv@aexp:
  1264                           
  1265                           ; 1 bytes @ 0x33
  1266  0053                     	ds	1
  1267  0054                     ??_main:
  1268                           
  1269                           ; 1 bytes @ 0x34
  1270  0054                     	ds	1
  1271  0055                     main@fv:
  1272                           
  1273                           ; 4 bytes @ 0x35
  1274  0055                     	ds	4
  1275                           
  1276                           	psect	maintext
  1277  028C                     __pmaintext:	
  1278 ;;
  1279 ;;Main: autosize = 0, tempsize = 1, incstack = 0, save=0
  1280 ;;
  1281 ;; *************** function _main *****************
  1282 ;; Defined at:
  1283 ;;		line 83 in file "main.c"
  1284 ;; Parameters:    Size  Location     Type
  1285 ;;		None
  1286 ;; Auto vars:     Size  Location     Type
  1287 ;;  fv              4   53[BANK0 ] float 
  1288 ;; Return value:  Size  Location     Type
  1289 ;;                  1    wreg      void 
  1290 ;; Registers used:
  1291 ;;		wreg, fsr0l, fsr0h, status,2, status,0, pclath, cstack
  1292 ;; Tracked objects:
  1293 ;;		On entry : B1F/0
  1294 ;;		On exit  : 0/0
  1295 ;;		Unchanged: 0/0
  1296 ;; Data sizes:     COMMON   BANK0   BANK1   BANK2   BANK3   BANK4   BANK5   BANK6   BANK7   BANK8   BANK9  BANK10  BANK1
      +1  BANK12
  1297 ;;      Params:         0       0       0       0       0       0       0       0       0       0       0       0       
      +0       0
  1298 ;;      Locals:         0       4       0       0       0       0       0       0       0       0       0       0       
      +0       0
  1299 ;;      Temps:          0       1       0       0       0       0       0       0       0       0       0       0       
      +0       0
  1300 ;;      Totals:         0       5       0       0       0       0       0       0       0       0       0       0       
      +0       0
  1301 ;;Total ram usage:        5 bytes
  1302 ;; Hardware stack levels required when called: 2
  1303 ;; This function calls:
  1304 ;;		_ADC_GetConversion
  1305 ;;		_SYSTEM_Initialize
  1306 ;;		_Segments_Init
  1307 ;;		_Segments_Set
  1308 ;;		___aldiv
  1309 ;;		___almod
  1310 ;;		___fldiv
  1311 ;;		___flmul
  1312 ;;		___fltol
  1313 ;;		___xxtofl
  1314 ;; This function is called by:
  1315 ;;		Startup code after reset
  1316 ;; This function uses a non-reentrant model
  1317 ;;
  1318                           
  1319  028C                     _main:	
  1320                           ;psect for function _main
  1321                           
  1322  028C                     l1867:	
  1323                           ;incstack = 0
  1324                           ; Regs used in _main: [wreg-fsr0h+status,2+status,0+pclath+cstack]
  1325                           
  1326                           
  1327                           ;main.c: 86:     SYSTEM_Initialize();
  1328  028C  318F  2793  3182   	fcall	_SYSTEM_Initialize
  1329  028F                     l1869:
  1330                           
  1331                           ;main.c: 88:     Segments_Init();
  1332  028F  3180  2026  3182   	fcall	_Segments_Init
  1333  0292                     l1871:
  1334                           
  1335                           ;main.c: 105:     {;main.c: 107:         if(AD_CNT == 250){
  1336  0292  30FA               	movlw	250
  1337  0293  0020               	movlb	0	; select bank0
  1338  0294  0669               	xorwf	_AD_CNT,w
  1339  0295  046A               	iorwf	_AD_CNT+1,w
  1340  0296  1D03               	btfss	3,2
  1341  0297  2A99               	goto	u2131
  1342  0298  2A9A               	goto	u2130
  1343  0299                     u2131:
  1344  0299  2AA3               	goto	l137
  1345  029A                     u2130:
  1346  029A                     l1873:
  1347                           
  1348                           ;main.c: 108:             ADC_result = ADC_GetConversion(channel_AN0);
  1349  029A  3000               	movlw	0
  1350  029B  3180  200B  3182   	fcall	_ADC_GetConversion
  1351  029E  0871               	movf	?_ADC_GetConversion+1,w
  1352  029F  0020               	movlb	0	; select bank0
  1353  02A0  00DE               	movwf	_ADC_result+1
  1354  02A1  0870               	movf	?_ADC_GetConversion,w
  1355  02A2  00DD               	movwf	_ADC_result
  1356  02A3                     l137:	
  1357                           ;main.c: 109:         }
  1358                           
  1359                           
  1360                           ;main.c: 110:         float fv = ((ADC_result * 30.0) / 1024.0);
  1361  02A3  3044               	movlw	68
  1362  02A4  00BD               	movwf	___fldiv@a+3
  1363  02A5  3080               	movlw	128
  1364  02A6  00BC               	movwf	___fldiv@a+2
  1365  02A7  3000               	movlw	0
  1366  02A8  00BB               	movwf	___fldiv@a+1
  1367  02A9  3000               	movlw	0
  1368  02AA  00BA               	movwf	___fldiv@a
  1369  02AB  3041               	movlw	65
  1370  02AC  00A3               	movwf	___flmul@b+3
  1371  02AD  30F0               	movlw	240
  1372  02AE  00A2               	movwf	___flmul@b+2
  1373  02AF  3000               	movlw	0
  1374  02B0  00A1               	movwf	___flmul@b+1
  1375  02B1  3000               	movlw	0
  1376  02B2  00A0               	movwf	___flmul@b
  1377  02B3  085D               	movf	_ADC_result,w
  1378  02B4  00F0               	movwf	___xxtofl@val
  1379  02B5  085E               	movf	_ADC_result+1,w
  1380  02B6  00F1               	movwf	___xxtofl@val+1
  1381  02B7  01F2               	clrf	___xxtofl@val+2
  1382  02B8  01F3               	clrf	___xxtofl@val+3
  1383  02B9  3000               	movlw	0
  1384  02BA  3181  21E0  3182   	fcall	___xxtofl
  1385  02BD  0873               	movf	?___xxtofl+3,w
  1386  02BE  0020               	movlb	0	; select bank0
  1387  02BF  00A7               	movwf	___flmul@a+3
  1388  02C0  0872               	movf	?___xxtofl+2,w
  1389  02C1  00A6               	movwf	___flmul@a+2
  1390  02C2  0871               	movf	?___xxtofl+1,w
  1391  02C3  00A5               	movwf	___flmul@a+1
  1392  02C4  0870               	movf	?___xxtofl,w
  1393  02C5  00A4               	movwf	___flmul@a
  1394  02C6  3185  2596  3182   	fcall	___flmul
  1395  02C9  0020               	movlb	0	; select bank0
  1396  02CA  0823               	movf	?___flmul+3,w
  1397  02CB  00C1               	movwf	___fldiv@b+3
  1398  02CC  0822               	movf	?___flmul+2,w
  1399  02CD  00C0               	movwf	___fldiv@b+2
  1400  02CE  0821               	movf	?___flmul+1,w
  1401  02CF  00BF               	movwf	___fldiv@b+1
  1402  02D0  0820               	movf	?___flmul,w
  1403  02D1  00BE               	movwf	___fldiv@b
  1404  02D2  3183  23E2  3182   	fcall	___fldiv
  1405  02D5  0020               	movlb	0	; select bank0
  1406  02D6  083D               	movf	?___fldiv+3,w
  1407  02D7  00D8               	movwf	main@fv+3
  1408  02D8  083C               	movf	?___fldiv+2,w
  1409  02D9  00D7               	movwf	main@fv+2
  1410  02DA  083B               	movf	?___fldiv+1,w
  1411  02DB  00D6               	movwf	main@fv+1
  1412  02DC  083A               	movf	?___fldiv,w
  1413  02DD  00D5               	movwf	main@fv
  1414                           
  1415                           ;main.c: 111:         Voltage = (int32_t)(fv * 100);
  1416  02DE  0858               	movf	main@fv+3,w
  1417  02DF  00A7               	movwf	___flmul@a+3
  1418  02E0  0857               	movf	main@fv+2,w
  1419  02E1  00A6               	movwf	___flmul@a+2
  1420  02E2  0856               	movf	main@fv+1,w
  1421  02E3  00A5               	movwf	___flmul@a+1
  1422  02E4  0855               	movf	main@fv,w
  1423  02E5  00A4               	movwf	___flmul@a
  1424  02E6  3042               	movlw	66
  1425  02E7  00A3               	movwf	___flmul@b+3
  1426  02E8  30C8               	movlw	200
  1427  02E9  00A2               	movwf	___flmul@b+2
  1428  02EA  3000               	movlw	0
  1429  02EB  00A1               	movwf	___flmul@b+1
  1430  02EC  3000               	movlw	0
  1431  02ED  00A0               	movwf	___flmul@b
  1432  02EE  3185  2596  3182   	fcall	___flmul
  1433  02F1  0020               	movlb	0	; select bank0
  1434  02F2  0823               	movf	?___flmul+3,w
  1435  02F3  00BD               	movwf	___fltol@f1+3
  1436  02F4  0822               	movf	?___flmul+2,w
  1437  02F5  00BC               	movwf	___fltol@f1+2
  1438  02F6  0821               	movf	?___flmul+1,w
  1439  02F7  00BB               	movwf	___fltol@f1+1
  1440  02F8  0820               	movf	?___flmul,w
  1441  02F9  00BA               	movwf	___fltol@f1
  1442  02FA  3180  205F  3182   	fcall	___fltol
  1443  02FD  0020               	movlb	0	; select bank0
  1444  02FE  083D               	movf	?___fltol+3,w
  1445  02FF  00DC               	movwf	_Voltage+3
  1446  0300  083C               	movf	?___fltol+2,w
  1447  0301  00DB               	movwf	_Voltage+2
  1448  0302  083B               	movf	?___fltol+1,w
  1449  0303  00DA               	movwf	_Voltage+1
  1450  0304  083A               	movf	?___fltol,w
  1451  0305  00D9               	movwf	_Voltage
  1452  0306                     l1875:
  1453                           
  1454                           ;main.c: 113:         Segments_Set(Voltage % 10 ,0);
  1455  0306  3000               	movlw	0
  1456  0307  00A9               	movwf	___almod@divisor+3
  1457  0308  3000               	movlw	0
  1458  0309  00A8               	movwf	___almod@divisor+2
  1459  030A  3000               	movlw	0
  1460  030B  00A7               	movwf	___almod@divisor+1
  1461  030C  300A               	movlw	10
  1462  030D  00A6               	movwf	___almod@divisor
  1463  030E  085C               	movf	_Voltage+3,w
  1464  030F  00AD               	movwf	___almod@dividend+3
  1465  0310  085B               	movf	_Voltage+2,w
  1466  0311  00AC               	movwf	___almod@dividend+2
  1467  0312  085A               	movf	_Voltage+1,w
  1468  0313  00AB               	movwf	___almod@dividend+1
  1469  0314  0859               	movf	_Voltage,w
  1470  0315  00AA               	movwf	___almod@dividend
  1471  0316  3180  20D4  3182   	fcall	___almod
  1472  0319  0020               	movlb	0	; select bank0
  1473  031A  0827               	movf	?___almod+1,w
  1474  031B  00AF               	movwf	Segments_Set@fnc_number+1
  1475  031C  0826               	movf	?___almod,w
  1476  031D  00AE               	movwf	Segments_Set@fnc_number
  1477  031E  3000               	movlw	0
  1478  031F  00B0               	movwf	Segments_Set@fnc_digit
  1479  0320  00B1               	movwf	Segments_Set@fnc_digit+1
  1480  0321  318F  27BA  3182   	fcall	_Segments_Set
  1481  0324                     l1877:
  1482                           
  1483                           ;main.c: 114:         _delay((unsigned long)((500)*(16000000/4000000.0)));
  1484  0324  3003               	movlw	3
  1485  0325  0020               	movlb	0	; select bank0
  1486  0326  00D4               	movwf	??_main
  1487  0327  3097               	movlw	151
  1488  0328                     u2157:
  1489  0328  0B89               	decfsz	9,f
  1490  0329  2B28               	goto	u2157
  1491  032A  0BD4               	decfsz	??_main,f
  1492  032B  2B28               	goto	u2157
  1493  032C  3200               	nop2
  1494  032D                     l1879:
  1495                           
  1496                           ;main.c: 115:         Segments_Set((Voltage / 10) % 10 ,1);
  1497  032D  3000               	movlw	0
  1498  032E  0020               	movlb	0	; select bank0
  1499  032F  00A9               	movwf	___almod@divisor+3
  1500  0330  3000               	movlw	0
  1501  0331  00A8               	movwf	___almod@divisor+2
  1502  0332  3000               	movlw	0
  1503  0333  00A7               	movwf	___almod@divisor+1
  1504  0334  300A               	movlw	10
  1505  0335  00A6               	movwf	___almod@divisor
  1506  0336  3000               	movlw	0
  1507  0337  00F3               	movwf	___aldiv@divisor+3
  1508  0338  3000               	movlw	0
  1509  0339  00F2               	movwf	___aldiv@divisor+2
  1510  033A  3000               	movlw	0
  1511  033B  00F1               	movwf	___aldiv@divisor+1
  1512  033C  300A               	movlw	10
  1513  033D  00F0               	movwf	___aldiv@divisor
  1514  033E  085C               	movf	_Voltage+3,w
  1515  033F  00F7               	movwf	___aldiv@dividend+3
  1516  0340  085B               	movf	_Voltage+2,w
  1517  0341  00F6               	movwf	___aldiv@dividend+2
  1518  0342  085A               	movf	_Voltage+1,w
  1519  0343  00F5               	movwf	___aldiv@dividend+1
  1520  0344  0859               	movf	_Voltage,w
  1521  0345  00F4               	movwf	___aldiv@dividend
  1522  0346  3181  2150  3182   	fcall	___aldiv
  1523  0349  0873               	movf	?___aldiv+3,w
  1524  034A  0020               	movlb	0	; select bank0
  1525  034B  00AD               	movwf	___almod@dividend+3
  1526  034C  0872               	movf	?___aldiv+2,w
  1527  034D  00AC               	movwf	___almod@dividend+2
  1528  034E  0871               	movf	?___aldiv+1,w
  1529  034F  00AB               	movwf	___almod@dividend+1
  1530  0350  0870               	movf	?___aldiv,w
  1531  0351  00AA               	movwf	___almod@dividend
  1532  0352  3180  20D4  3182   	fcall	___almod
  1533  0355  0020               	movlb	0	; select bank0
  1534  0356  0827               	movf	?___almod+1,w
  1535  0357  00AF               	movwf	Segments_Set@fnc_number+1
  1536  0358  0826               	movf	?___almod,w
  1537  0359  00AE               	movwf	Segments_Set@fnc_number
  1538  035A  3001               	movlw	1
  1539  035B  00B0               	movwf	Segments_Set@fnc_digit
  1540  035C  3000               	movlw	0
  1541  035D  00B1               	movwf	Segments_Set@fnc_digit+1
  1542  035E  318F  27BA  3182   	fcall	_Segments_Set
  1543  0361                     l1881:
  1544                           
  1545                           ;main.c: 116:         _delay((unsigned long)((500)*(16000000/4000000.0)));
  1546  0361  3003               	movlw	3
  1547  0362  0020               	movlb	0	; select bank0
  1548  0363  00D4               	movwf	??_main
  1549  0364  3097               	movlw	151
  1550  0365                     u2167:
  1551  0365  0B89               	decfsz	9,f
  1552  0366  2B65               	goto	u2167
  1553  0367  0BD4               	decfsz	??_main,f
  1554  0368  2B65               	goto	u2167
  1555  0369  3200               	nop2
  1556  036A                     l1883:
  1557                           
  1558                           ;main.c: 117:         Segments_Set((Voltage / 100) % 10 ,2);
  1559  036A  3000               	movlw	0
  1560  036B  0020               	movlb	0	; select bank0
  1561  036C  00A9               	movwf	___almod@divisor+3
  1562  036D  3000               	movlw	0
  1563  036E  00A8               	movwf	___almod@divisor+2
  1564  036F  3000               	movlw	0
  1565  0370  00A7               	movwf	___almod@divisor+1
  1566  0371  300A               	movlw	10
  1567  0372  00A6               	movwf	___almod@divisor
  1568  0373  3000               	movlw	0
  1569  0374  00F3               	movwf	___aldiv@divisor+3
  1570  0375  3000               	movlw	0
  1571  0376  00F2               	movwf	___aldiv@divisor+2
  1572  0377  3000               	movlw	0
  1573  0378  00F1               	movwf	___aldiv@divisor+1
  1574  0379  3064               	movlw	100
  1575  037A  00F0               	movwf	___aldiv@divisor
  1576  037B  085C               	movf	_Voltage+3,w
  1577  037C  00F7               	movwf	___aldiv@dividend+3
  1578  037D  085B               	movf	_Voltage+2,w
  1579  037E  00F6               	movwf	___aldiv@dividend+2
  1580  037F  085A               	movf	_Voltage+1,w
  1581  0380  00F5               	movwf	___aldiv@dividend+1
  1582  0381  0859               	movf	_Voltage,w
  1583  0382  00F4               	movwf	___aldiv@dividend
  1584  0383  3181  2150  3182   	fcall	___aldiv
  1585  0386  0873               	movf	?___aldiv+3,w
  1586  0387  0020               	movlb	0	; select bank0
  1587  0388  00AD               	movwf	___almod@dividend+3
  1588  0389  0872               	movf	?___aldiv+2,w
  1589  038A  00AC               	movwf	___almod@dividend+2
  1590  038B  0871               	movf	?___aldiv+1,w
  1591  038C  00AB               	movwf	___almod@dividend+1
  1592  038D  0870               	movf	?___aldiv,w
  1593  038E  00AA               	movwf	___almod@dividend
  1594  038F  3180  20D4  3182   	fcall	___almod
  1595  0392  0020               	movlb	0	; select bank0
  1596  0393  0827               	movf	?___almod+1,w
  1597  0394  00AF               	movwf	Segments_Set@fnc_number+1
  1598  0395  0826               	movf	?___almod,w
  1599  0396  00AE               	movwf	Segments_Set@fnc_number
  1600  0397  3002               	movlw	2
  1601  0398  00B0               	movwf	Segments_Set@fnc_digit
  1602  0399  3000               	movlw	0
  1603  039A  00B1               	movwf	Segments_Set@fnc_digit+1
  1604  039B  318F  27BA  3182   	fcall	_Segments_Set
  1605  039E                     l1885:
  1606                           
  1607                           ;main.c: 118:         _delay((unsigned long)((500)*(16000000/4000000.0)));
  1608  039E  3003               	movlw	3
  1609  039F  0020               	movlb	0	; select bank0
  1610  03A0  00D4               	movwf	??_main
  1611  03A1  3097               	movlw	151
  1612  03A2                     u2177:
  1613  03A2  0B89               	decfsz	9,f
  1614  03A3  2BA2               	goto	u2177
  1615  03A4  0BD4               	decfsz	??_main,f
  1616  03A5  2BA2               	goto	u2177
  1617  03A6  3200               	nop2
  1618  03A7                     l1887:
  1619                           
  1620                           ;main.c: 119:         Segments_Set(Voltage / 1000 ,3);
  1621  03A7  3000               	movlw	0
  1622  03A8  00F3               	movwf	___aldiv@divisor+3
  1623  03A9  3000               	movlw	0
  1624  03AA  00F2               	movwf	___aldiv@divisor+2
  1625  03AB  3003               	movlw	3
  1626  03AC  00F1               	movwf	___aldiv@divisor+1
  1627  03AD  30E8               	movlw	232
  1628  03AE  00F0               	movwf	___aldiv@divisor
  1629  03AF  0020               	movlb	0	; select bank0
  1630  03B0  085C               	movf	_Voltage+3,w
  1631  03B1  00F7               	movwf	___aldiv@dividend+3
  1632  03B2  085B               	movf	_Voltage+2,w
  1633  03B3  00F6               	movwf	___aldiv@dividend+2
  1634  03B4  085A               	movf	_Voltage+1,w
  1635  03B5  00F5               	movwf	___aldiv@dividend+1
  1636  03B6  0859               	movf	_Voltage,w
  1637  03B7  00F4               	movwf	___aldiv@dividend
  1638  03B8  3181  2150  3182   	fcall	___aldiv
  1639  03BB  0871               	movf	?___aldiv+1,w
  1640  03BC  0020               	movlb	0	; select bank0
  1641  03BD  00AF               	movwf	Segments_Set@fnc_number+1
  1642  03BE  0870               	movf	?___aldiv,w
  1643  03BF  00AE               	movwf	Segments_Set@fnc_number
  1644  03C0  3003               	movlw	3
  1645  03C1  00B0               	movwf	Segments_Set@fnc_digit
  1646  03C2  3000               	movlw	0
  1647  03C3  00B1               	movwf	Segments_Set@fnc_digit+1
  1648  03C4  318F  27BA  3182   	fcall	_Segments_Set
  1649  03C7                     l1889:
  1650                           
  1651                           ;main.c: 120:         _delay((unsigned long)((500)*(16000000/4000000.0)));
  1652  03C7  3003               	movlw	3
  1653  03C8  0020               	movlb	0	; select bank0
  1654  03C9  00D4               	movwf	??_main
  1655  03CA  3097               	movlw	151
  1656  03CB                     u2187:
  1657  03CB  0B89               	decfsz	9,f
  1658  03CC  2BCB               	goto	u2187
  1659  03CD  0BD4               	decfsz	??_main,f
  1660  03CE  2BCB               	goto	u2187
  1661  03CF  3200               	nop2
  1662  03D0                     l1891:
  1663                           
  1664                           ;main.c: 122:         AD_CNT--;
  1665  03D0  3001               	movlw	1
  1666  03D1  0020               	movlb	0	; select bank0
  1667  03D2  02E9               	subwf	_AD_CNT,f
  1668  03D3  3000               	movlw	0
  1669  03D4  3BEA               	subwfb	_AD_CNT+1,f
  1670  03D5                     l1893:
  1671                           
  1672                           ;main.c: 124:         if(AD_CNT <= 0){
  1673  03D5  0869               	movf	_AD_CNT,w
  1674  03D6  046A               	iorwf	_AD_CNT+1,w
  1675  03D7  1D03               	btfss	3,2
  1676  03D8  2BDA               	goto	u2141
  1677  03D9  2BDB               	goto	u2140
  1678  03DA                     u2141:
  1679  03DA  2A92               	goto	l1871
  1680  03DB                     u2140:
  1681  03DB                     l1895:
  1682                           
  1683                           ;main.c: 125:             AD_CNT = 250;
  1684  03DB  30FA               	movlw	250
  1685  03DC  00E9               	movwf	_AD_CNT
  1686  03DD  3000               	movlw	0
  1687  03DE  00EA               	movwf	_AD_CNT+1
  1688  03DF  2A92               	goto	l1871
  1689  03E0  3180  2802         	ljmp	start
  1690  03E2                     __end_of_main:
  1691                           
  1692                           	psect	text1
  1693  01E0                     __ptext1:	
  1694 ;; *************** function ___xxtofl *****************
  1695 ;; Defined at:
  1696 ;;		line 10 in file "C:\Program Files\Microchip\xc8\v2.36\pic\sources\c99\common\xxtofl.c"
  1697 ;; Parameters:    Size  Location     Type
  1698 ;;  sign            1    wreg     unsigned char 
  1699 ;;  val             4    0[COMMON] long 
  1700 ;; Auto vars:     Size  Location     Type
  1701 ;;  sign            1    8[COMMON] unsigned char 
  1702 ;;  arg             4   10[COMMON] unsigned long 
  1703 ;;  exp             1    9[COMMON] unsigned char 
  1704 ;; Return value:  Size  Location     Type
  1705 ;;                  4    0[COMMON] unsigned char 
  1706 ;; Registers used:
  1707 ;;		wreg, status,2, status,0
  1708 ;; Tracked objects:
  1709 ;;		On entry : 0/0
  1710 ;;		On exit  : 0/0
  1711 ;;		Unchanged: 0/0
  1712 ;; Data sizes:     COMMON   BANK0   BANK1   BANK2   BANK3   BANK4   BANK5   BANK6   BANK7   BANK8   BANK9  BANK10  BANK1
      +1  BANK12
  1713 ;;      Params:         4       0       0       0       0       0       0       0       0       0       0       0       
      +0       0
  1714 ;;      Locals:         6       0       0       0       0       0       0       0       0       0       0       0       
      +0       0
  1715 ;;      Temps:          4       0       0       0       0       0       0       0       0       0       0       0       
      +0       0
  1716 ;;      Totals:        14       0       0       0       0       0       0       0       0       0       0       0       
      +0       0
  1717 ;;Total ram usage:       14 bytes
  1718 ;; Hardware stack levels used: 1
  1719 ;; This function calls:
  1720 ;;		Nothing
  1721 ;; This function is called by:
  1722 ;;		_main
  1723 ;; This function uses a non-reentrant model
  1724 ;;
  1725                           
  1726  01E0                     ___xxtofl:	
  1727                           ;psect for function ___xxtofl
  1728                           
  1729                           
  1730                           ;incstack = 0
  1731                           ; Regs used in ___xxtofl: [wreg+status,2+status,0]
  1732                           ;___xxtofl@sign stored from wreg
  1733  01E0  00F8               	movwf	___xxtofl@sign
  1734  01E1                     l1823:
  1735  01E1  0878               	movf	___xxtofl@sign,w
  1736  01E2  1903               	btfsc	3,2
  1737  01E3  29E5               	goto	u1991
  1738  01E4  29E6               	goto	u1990
  1739  01E5                     u1991:
  1740  01E5  29FA               	goto	l1829
  1741  01E6                     u1990:
  1742  01E6                     l1825:
  1743  01E6  1FF3               	btfss	___xxtofl@val+3,7
  1744  01E7  29E9               	goto	u2001
  1745  01E8  29EA               	goto	u2000
  1746  01E9                     u2001:
  1747  01E9  29FA               	goto	l1829
  1748  01EA                     u2000:
  1749  01EA                     l1827:
  1750  01EA  0970               	comf	___xxtofl@val,w
  1751  01EB  00FA               	movwf	___xxtofl@arg
  1752  01EC  0971               	comf	___xxtofl@val+1,w
  1753  01ED  00FB               	movwf	___xxtofl@arg+1
  1754  01EE  0972               	comf	___xxtofl@val+2,w
  1755  01EF  00FC               	movwf	___xxtofl@arg+2
  1756  01F0  0973               	comf	___xxtofl@val+3,w
  1757  01F1  00FD               	movwf	___xxtofl@arg+3
  1758  01F2  0AFA               	incf	___xxtofl@arg,f
  1759  01F3  1903               	skipnz
  1760  01F4  0AFB               	incf	___xxtofl@arg+1,f
  1761  01F5  1903               	skipnz
  1762  01F6  0AFC               	incf	___xxtofl@arg+2,f
  1763  01F7  1903               	skipnz
  1764  01F8  0AFD               	incf	___xxtofl@arg+3,f
  1765  01F9  2A02               	goto	l748
  1766  01FA                     l1829:
  1767  01FA  0873               	movf	___xxtofl@val+3,w
  1768  01FB  00FD               	movwf	___xxtofl@arg+3
  1769  01FC  0872               	movf	___xxtofl@val+2,w
  1770  01FD  00FC               	movwf	___xxtofl@arg+2
  1771  01FE  0871               	movf	___xxtofl@val+1,w
  1772  01FF  00FB               	movwf	___xxtofl@arg+1
  1773  0200  0870               	movf	___xxtofl@val,w
  1774  0201  00FA               	movwf	___xxtofl@arg
  1775  0202                     l748:
  1776  0202  0873               	movf	___xxtofl@val+3,w
  1777  0203  0472               	iorwf	___xxtofl@val+2,w
  1778  0204  0471               	iorwf	___xxtofl@val+1,w
  1779  0205  0470               	iorwf	___xxtofl@val,w
  1780  0206  1D03               	skipz
  1781  0207  2A09               	goto	u2011
  1782  0208  2A0A               	goto	u2010
  1783  0209                     u2011:
  1784  0209  2A13               	goto	l1835
  1785  020A                     u2010:
  1786  020A                     l1831:
  1787  020A  3000               	movlw	0
  1788  020B  00F3               	movwf	?___xxtofl+3
  1789  020C  3000               	movlw	0
  1790  020D  00F2               	movwf	?___xxtofl+2
  1791  020E  3000               	movlw	0
  1792  020F  00F1               	movwf	?___xxtofl+1
  1793  0210  3000               	movlw	0
  1794  0211  00F0               	movwf	?___xxtofl
  1795  0212  2A8B               	goto	l750
  1796  0213                     l1835:
  1797  0213  3096               	movlw	150
  1798  0214  00F4               	movwf	??___xxtofl
  1799  0215  0874               	movf	??___xxtofl,w
  1800  0216  00F9               	movwf	___xxtofl@exp
  1801  0217  2A23               	goto	l1839
  1802  0218                     l1837:
  1803  0218  3001               	movlw	1
  1804  0219  00F4               	movwf	??___xxtofl
  1805  021A  0874               	movf	??___xxtofl,w
  1806  021B  07F9               	addwf	___xxtofl@exp,f
  1807  021C  3001               	movlw	1
  1808  021D                     u2025:
  1809  021D  36FD               	lsrf	___xxtofl@arg+3,f
  1810  021E  0CFC               	rrf	___xxtofl@arg+2,f
  1811  021F  0CFB               	rrf	___xxtofl@arg+1,f
  1812  0220  0CFA               	rrf	___xxtofl@arg,f
  1813  0221  0B89               	decfsz	9,f
  1814  0222  2A1D               	goto	u2025
  1815  0223                     l1839:
  1816  0223  30FE               	movlw	254
  1817  0224  057D               	andwf	___xxtofl@arg+3,w
  1818  0225  1D03               	btfss	3,2
  1819  0226  2A28               	goto	u2031
  1820  0227  2A29               	goto	u2030
  1821  0228                     u2031:
  1822  0228  2A18               	goto	l1837
  1823  0229                     u2030:
  1824  0229  2A3D               	goto	l754
  1825  022A                     l1841:
  1826  022A  3001               	movlw	1
  1827  022B  00F4               	movwf	??___xxtofl
  1828  022C  0874               	movf	??___xxtofl,w
  1829  022D  07F9               	addwf	___xxtofl@exp,f
  1830  022E                     l1843:
  1831  022E  3001               	movlw	1
  1832  022F  07FA               	addwf	___xxtofl@arg,f
  1833  0230  3000               	movlw	0
  1834  0231  3DFB               	addwfc	___xxtofl@arg+1,f
  1835  0232  3000               	movlw	0
  1836  0233  3DFC               	addwfc	___xxtofl@arg+2,f
  1837  0234  3000               	movlw	0
  1838  0235  3DFD               	addwfc	___xxtofl@arg+3,f
  1839  0236                     l1845:
  1840  0236  3001               	movlw	1
  1841  0237                     u2045:
  1842  0237  36FD               	lsrf	___xxtofl@arg+3,f
  1843  0238  0CFC               	rrf	___xxtofl@arg+2,f
  1844  0239  0CFB               	rrf	___xxtofl@arg+1,f
  1845  023A  0CFA               	rrf	___xxtofl@arg,f
  1846  023B  0B89               	decfsz	9,f
  1847  023C  2A37               	goto	u2045
  1848  023D                     l754:
  1849  023D  30FF               	movlw	255
  1850  023E  057D               	andwf	___xxtofl@arg+3,w
  1851  023F  1D03               	btfss	3,2
  1852  0240  2A42               	goto	u2051
  1853  0241  2A43               	goto	u2050
  1854  0242                     u2051:
  1855  0242  2A2A               	goto	l1841
  1856  0243                     u2050:
  1857  0243  2A4D               	goto	l1849
  1858  0244                     l1847:
  1859  0244  3001               	movlw	1
  1860  0245  02F9               	subwf	___xxtofl@exp,f
  1861  0246  3001               	movlw	1
  1862  0247                     u2065:
  1863  0247  35FA               	lslf	___xxtofl@arg,f
  1864  0248  0DFB               	rlf	___xxtofl@arg+1,f
  1865  0249  0DFC               	rlf	___xxtofl@arg+2,f
  1866  024A  0DFD               	rlf	___xxtofl@arg+3,f
  1867  024B  0B89               	decfsz	9,f
  1868  024C  2A47               	goto	u2065
  1869  024D                     l1849:
  1870  024D  1BFC               	btfsc	___xxtofl@arg+2,7
  1871  024E  2A50               	goto	u2071
  1872  024F  2A51               	goto	u2070
  1873  0250                     u2071:
  1874  0250  2A57               	goto	l761
  1875  0251                     u2070:
  1876  0251                     l1851:
  1877  0251  3002               	movlw	2
  1878  0252  0279               	subwf	___xxtofl@exp,w
  1879  0253  1803               	skipnc
  1880  0254  2A56               	goto	u2081
  1881  0255  2A57               	goto	u2080
  1882  0256                     u2081:
  1883  0256  2A44               	goto	l1847
  1884  0257                     u2080:
  1885  0257                     l761:
  1886  0257  1879               	btfsc	___xxtofl@exp,0
  1887  0258  2A5A               	goto	u2091
  1888  0259  2A5B               	goto	u2090
  1889  025A                     u2091:
  1890  025A  2A63               	goto	l762
  1891  025B                     u2090:
  1892  025B                     l1853:
  1893  025B  30FF               	movlw	255
  1894  025C  05FA               	andwf	___xxtofl@arg,f
  1895  025D  30FF               	movlw	255
  1896  025E  05FB               	andwf	___xxtofl@arg+1,f
  1897  025F  307F               	movlw	127
  1898  0260  05FC               	andwf	___xxtofl@arg+2,f
  1899  0261  30FF               	movlw	255
  1900  0262  05FD               	andwf	___xxtofl@arg+3,f
  1901  0263                     l762:
  1902  0263  1003               	clrc
  1903  0264  0CF9               	rrf	___xxtofl@exp,f
  1904  0265                     l1855:
  1905  0265  0879               	movf	___xxtofl@exp,w
  1906  0266  00F4               	movwf	??___xxtofl
  1907  0267  01F5               	clrf	??___xxtofl+1
  1908  0268  01F6               	clrf	??___xxtofl+2
  1909  0269  01F7               	clrf	??___xxtofl+3
  1910  026A  3018               	movlw	24
  1911  026B                     u2105:
  1912  026B  35F4               	lslf	??___xxtofl,f
  1913  026C  0DF5               	rlf	??___xxtofl+1,f
  1914  026D  0DF6               	rlf	??___xxtofl+2,f
  1915  026E  0DF7               	rlf	??___xxtofl+3,f
  1916  026F                     u2100:
  1917  026F  0B89               	decfsz	9,f
  1918  0270  2A6B               	goto	u2105
  1919  0271  0874               	movf	??___xxtofl,w
  1920  0272  04FA               	iorwf	___xxtofl@arg,f
  1921  0273  0875               	movf	??___xxtofl+1,w
  1922  0274  04FB               	iorwf	___xxtofl@arg+1,f
  1923  0275  0876               	movf	??___xxtofl+2,w
  1924  0276  04FC               	iorwf	___xxtofl@arg+2,f
  1925  0277  0877               	movf	??___xxtofl+3,w
  1926  0278  04FD               	iorwf	___xxtofl@arg+3,f
  1927  0279                     l1857:
  1928  0279  0878               	movf	___xxtofl@sign,w
  1929  027A  1903               	btfsc	3,2
  1930  027B  2A7D               	goto	u2111
  1931  027C  2A7E               	goto	u2110
  1932  027D                     u2111:
  1933  027D  2A83               	goto	l1863
  1934  027E                     u2110:
  1935  027E                     l1859:
  1936  027E  1FF3               	btfss	___xxtofl@val+3,7
  1937  027F  2A81               	goto	u2121
  1938  0280  2A82               	goto	u2120
  1939  0281                     u2121:
  1940  0281  2A83               	goto	l1863
  1941  0282                     u2120:
  1942  0282                     l1861:
  1943  0282  17FD               	bsf	___xxtofl@arg+3,7
  1944  0283                     l1863:
  1945  0283  087D               	movf	___xxtofl@arg+3,w
  1946  0284  00F3               	movwf	?___xxtofl+3
  1947  0285  087C               	movf	___xxtofl@arg+2,w
  1948  0286  00F2               	movwf	?___xxtofl+2
  1949  0287  087B               	movf	___xxtofl@arg+1,w
  1950  0288  00F1               	movwf	?___xxtofl+1
  1951  0289  087A               	movf	___xxtofl@arg,w
  1952  028A  00F0               	movwf	?___xxtofl
  1953  028B                     l750:
  1954  028B  0008               	return
  1955  028C                     __end_of___xxtofl:
  1956                           
  1957                           	psect	text2
  1958  005F                     __ptext2:	
  1959 ;; *************** function ___fltol *****************
  1960 ;; Defined at:
  1961 ;;		line 43 in file "C:\Program Files\Microchip\xc8\v2.36\pic\sources\c99\common\fltol.c"
  1962 ;; Parameters:    Size  Location     Type
  1963 ;;  f1              4   26[BANK0 ] unsigned char 
  1964 ;; Auto vars:     Size  Location     Type
  1965 ;;  exp1            1   36[BANK0 ] unsigned char 
  1966 ;;  sign1           1   35[BANK0 ] unsigned char 
  1967 ;; Return value:  Size  Location     Type
  1968 ;;                  4   26[BANK0 ] long 
  1969 ;; Registers used:
  1970 ;;		wreg, status,2, status,0
  1971 ;; Tracked objects:
  1972 ;;		On entry : 0/0
  1973 ;;		On exit  : 0/0
  1974 ;;		Unchanged: 0/0
  1975 ;; Data sizes:     COMMON   BANK0   BANK1   BANK2   BANK3   BANK4   BANK5   BANK6   BANK7   BANK8   BANK9  BANK10  BANK1
      +1  BANK12
  1976 ;;      Params:         0       4       0       0       0       0       0       0       0       0       0       0       
      +0       0
  1977 ;;      Locals:         0       2       0       0       0       0       0       0       0       0       0       0       
      +0       0
  1978 ;;      Temps:          0       5       0       0       0       0       0       0       0       0       0       0       
      +0       0
  1979 ;;      Totals:         0      11       0       0       0       0       0       0       0       0       0       0       
      +0       0
  1980 ;;Total ram usage:       11 bytes
  1981 ;; Hardware stack levels used: 1
  1982 ;; This function calls:
  1983 ;;		Nothing
  1984 ;; This function is called by:
  1985 ;;		_main
  1986 ;; This function uses a non-reentrant model
  1987 ;;
  1988                           
  1989  005F                     ___fltol:	
  1990                           ;psect for function ___fltol
  1991                           
  1992  005F                     l1507:	
  1993                           ;incstack = 0
  1994                           ; Regs used in ___fltol: [wreg+status,2+status,0]
  1995                           
  1996  005F  1003               	clrc
  1997  0060  0020               	movlb	0	; select bank0
  1998  0061  0D3C               	rlf	___fltol@f1+2,w
  1999  0062  0D3D               	rlf	___fltol@f1+3,w
  2000  0063  00BE               	movwf	??___fltol
  2001  0064  083E               	movf	??___fltol,w
  2002  0065  00C4               	movwf	___fltol@exp1
  2003  0066  0844               	movf	___fltol@exp1,w
  2004  0067  1D03               	btfss	3,2
  2005  0068  286A               	goto	u1341
  2006  0069  286B               	goto	u1340
  2007  006A                     u1341:
  2008  006A  2874               	goto	l1513
  2009  006B                     u1340:
  2010  006B                     l1509:
  2011  006B  3000               	movlw	0
  2012  006C  00BD               	movwf	?___fltol+3
  2013  006D  3000               	movlw	0
  2014  006E  00BC               	movwf	?___fltol+2
  2015  006F  3000               	movlw	0
  2016  0070  00BB               	movwf	?___fltol+1
  2017  0071  3000               	movlw	0
  2018  0072  00BA               	movwf	?___fltol
  2019  0073  28D3               	goto	l501
  2020  0074                     l1513:
  2021  0074  083A               	movf	___fltol@f1,w
  2022  0075  00BE               	movwf	??___fltol
  2023  0076  083B               	movf	___fltol@f1+1,w
  2024  0077  00BF               	movwf	??___fltol+1
  2025  0078  083C               	movf	___fltol@f1+2,w
  2026  0079  00C0               	movwf	??___fltol+2
  2027  007A  083D               	movf	___fltol@f1+3,w
  2028  007B  00C1               	movwf	??___fltol+3
  2029  007C  301F               	movlw	31
  2030  007D                     u1355:
  2031  007D  36C1               	lsrf	??___fltol+3,f
  2032  007E  0CC0               	rrf	??___fltol+2,f
  2033  007F  0CBF               	rrf	??___fltol+1,f
  2034  0080  0CBE               	rrf	??___fltol,f
  2035  0081                     u1350:
  2036  0081  0B89               	decfsz	9,f
  2037  0082  287D               	goto	u1355
  2038  0083  083E               	movf	??___fltol,w
  2039  0084  00C2               	movwf	??___fltol+4
  2040  0085  0842               	movf	??___fltol+4,w
  2041  0086  00C3               	movwf	___fltol@sign1
  2042  0087                     l1515:
  2043  0087  17BC               	bsf	___fltol@f1+2,7
  2044  0088                     l1517:
  2045  0088  30FF               	movlw	255
  2046  0089  05BA               	andwf	___fltol@f1,f
  2047  008A  30FF               	movlw	255
  2048  008B  05BB               	andwf	___fltol@f1+1,f
  2049  008C  30FF               	movlw	255
  2050  008D  05BC               	andwf	___fltol@f1+2,f
  2051  008E  3000               	movlw	0
  2052  008F  05BD               	andwf	___fltol@f1+3,f
  2053  0090                     l1519:
  2054  0090  3096               	movlw	150
  2055  0091  02C4               	subwf	___fltol@exp1,f
  2056  0092                     l1521:
  2057  0092  1FC4               	btfss	___fltol@exp1,7
  2058  0093  2895               	goto	u1361
  2059  0094  2896               	goto	u1360
  2060  0095                     u1361:
  2061  0095  28AE               	goto	l1531
  2062  0096                     u1360:
  2063  0096                     l1523:
  2064  0096  0844               	movf	___fltol@exp1,w
  2065  0097  3A80               	xorlw	128
  2066  0098  3E97               	addlw	151
  2067  0099  1803               	skipnc
  2068  009A  289C               	goto	u1371
  2069  009B  289D               	goto	u1370
  2070  009C                     u1371:
  2071  009C  289E               	goto	l1529
  2072  009D                     u1370:
  2073  009D  286B               	goto	l1509
  2074  009E                     l1529:
  2075  009E  3001               	movlw	1
  2076  009F                     u1385:
  2077  009F  36BD               	lsrf	___fltol@f1+3,f
  2078  00A0  0CBC               	rrf	___fltol@f1+2,f
  2079  00A1  0CBB               	rrf	___fltol@f1+1,f
  2080  00A2  0CBA               	rrf	___fltol@f1,f
  2081  00A3  0B89               	decfsz	9,f
  2082  00A4  289F               	goto	u1385
  2083  00A5  3001               	movlw	1
  2084  00A6  00BE               	movwf	??___fltol
  2085  00A7  083E               	movf	??___fltol,w
  2086  00A8  07C4               	addwf	___fltol@exp1,f
  2087  00A9  1D03               	btfss	3,2
  2088  00AA  28AC               	goto	u1391
  2089  00AB  28AD               	goto	u1390
  2090  00AC                     u1391:
  2091  00AC  289E               	goto	l1529
  2092  00AD                     u1390:
  2093  00AD  28C3               	goto	l1539
  2094  00AE                     l1531:
  2095  00AE  3020               	movlw	32
  2096  00AF  0244               	subwf	___fltol@exp1,w
  2097  00B0  1C03               	skipc
  2098  00B1  28B3               	goto	u1401
  2099  00B2  28B4               	goto	u1400
  2100  00B3                     u1401:
  2101  00B3  28BE               	goto	l508
  2102  00B4                     u1400:
  2103  00B4  286B               	goto	l1509
  2104  00B5                     l1537:
  2105  00B5  3001               	movlw	1
  2106  00B6                     u1415:
  2107  00B6  35BA               	lslf	___fltol@f1,f
  2108  00B7  0DBB               	rlf	___fltol@f1+1,f
  2109  00B8  0DBC               	rlf	___fltol@f1+2,f
  2110  00B9  0DBD               	rlf	___fltol@f1+3,f
  2111  00BA  0B89               	decfsz	9,f
  2112  00BB  28B6               	goto	u1415
  2113  00BC  3001               	movlw	1
  2114  00BD  02C4               	subwf	___fltol@exp1,f
  2115  00BE                     l508:
  2116  00BE  0844               	movf	___fltol@exp1,w
  2117  00BF  1D03               	btfss	3,2
  2118  00C0  28C2               	goto	u1421
  2119  00C1  28C3               	goto	u1420
  2120  00C2                     u1421:
  2121  00C2  28B5               	goto	l1537
  2122  00C3                     u1420:
  2123  00C3                     l1539:
  2124  00C3  0843               	movf	___fltol@sign1,w
  2125  00C4  1903               	btfsc	3,2
  2126  00C5  28C7               	goto	u1431
  2127  00C6  28C8               	goto	u1430
  2128  00C7                     u1431:
  2129  00C7  28D3               	goto	l511
  2130  00C8                     u1430:
  2131  00C8                     l1541:
  2132  00C8  09BA               	comf	___fltol@f1,f
  2133  00C9  09BB               	comf	___fltol@f1+1,f
  2134  00CA  09BC               	comf	___fltol@f1+2,f
  2135  00CB  09BD               	comf	___fltol@f1+3,f
  2136  00CC  0ABA               	incf	___fltol@f1,f
  2137  00CD  1903               	skipnz
  2138  00CE  0ABB               	incf	___fltol@f1+1,f
  2139  00CF  1903               	skipnz
  2140  00D0  0ABC               	incf	___fltol@f1+2,f
  2141  00D1  1903               	skipnz
  2142  00D2  0ABD               	incf	___fltol@f1+3,f
  2143  00D3                     l511:
  2144  00D3                     l501:
  2145  00D3  0008               	return
  2146  00D4                     __end_of___fltol:
  2147                           
  2148                           	psect	text3
  2149  0596                     __ptext3:	
  2150 ;; *************** function ___flmul *****************
  2151 ;; Defined at:
  2152 ;;		line 8 in file "C:\Program Files\Microchip\xc8\v2.36\pic\sources\c99\common\sprcmul.c"
  2153 ;; Parameters:    Size  Location     Type
  2154 ;;  b               4    0[BANK0 ] long 
  2155 ;;  a               4    4[BANK0 ] long 
  2156 ;; Auto vars:     Size  Location     Type
  2157 ;;  prod            4   20[BANK0 ] struct .
  2158 ;;  grs             4   14[BANK0 ] unsigned long 
  2159 ;;  temp            2   24[BANK0 ] struct .
  2160 ;;  bexp            1   19[BANK0 ] unsigned char 
  2161 ;;  aexp            1   18[BANK0 ] unsigned char 
  2162 ;;  sign            1   13[BANK0 ] unsigned char 
  2163 ;; Return value:  Size  Location     Type
  2164 ;;                  4    0[BANK0 ] unsigned char 
  2165 ;; Registers used:
  2166 ;;		wreg, status,2, status,0, pclath, cstack
  2167 ;; Tracked objects:
  2168 ;;		On entry : 0/0
  2169 ;;		On exit  : 0/0
  2170 ;;		Unchanged: 0/0
  2171 ;; Data sizes:     COMMON   BANK0   BANK1   BANK2   BANK3   BANK4   BANK5   BANK6   BANK7   BANK8   BANK9  BANK10  BANK1
      +1  BANK12
  2172 ;;      Params:         0       8       0       0       0       0       0       0       0       0       0       0       
      +0       0
  2173 ;;      Locals:         0      13       0       0       0       0       0       0       0       0       0       0       
      +0       0
  2174 ;;      Temps:          0       5       0       0       0       0       0       0       0       0       0       0       
      +0       0
  2175 ;;      Totals:         0      26       0       0       0       0       0       0       0       0       0       0       
      +0       0
  2176 ;;Total ram usage:       26 bytes
  2177 ;; Hardware stack levels used: 1
  2178 ;; Hardware stack levels required when called: 1
  2179 ;; This function calls:
  2180 ;;		__Umul8_16
  2181 ;; This function is called by:
  2182 ;;		_main
  2183 ;; This function uses a non-reentrant model
  2184 ;;
  2185                           
  2186  0596                     ___flmul:	
  2187                           ;psect for function ___flmul
  2188                           
  2189  0596                     l1683:	
  2190                           ;incstack = 0
  2191                           ; Regs used in ___flmul: [wreg+status,2+status,0+pclath+cstack]
  2192                           
  2193  0596  0020               	movlb	0	; select bank0
  2194  0597  0823               	movf	___flmul@b+3,w
  2195  0598  3980               	andlw	128
  2196  0599  00A8               	movwf	??___flmul
  2197  059A  0828               	movf	??___flmul,w
  2198  059B  00AD               	movwf	___flmul@sign
  2199  059C                     l1685:
  2200  059C  3523               	lslf	___flmul@b+3,w
  2201  059D  00A8               	movwf	??___flmul
  2202  059E  0828               	movf	??___flmul,w
  2203  059F  00B3               	movwf	___flmul@bexp
  2204  05A0                     l1687:
  2205  05A0  1FA2               	btfss	___flmul@b+2,7
  2206  05A1  2DA3               	goto	u1731
  2207  05A2  2DA4               	goto	u1730
  2208  05A3                     u1731:
  2209  05A3  2DA5               	goto	l1691
  2210  05A4                     u1730:
  2211  05A4                     l1689:
  2212  05A4  1433               	bsf	___flmul@bexp,0
  2213  05A5                     l1691:
  2214  05A5  0833               	movf	___flmul@bexp,w
  2215  05A6  1903               	btfsc	3,2
  2216  05A7  2DA9               	goto	u1741
  2217  05A8  2DAA               	goto	u1740
  2218  05A9                     u1741:
  2219  05A9  2DB9               	goto	l1699
  2220  05AA                     u1740:
  2221  05AA                     l1693:
  2222  05AA  0A33               	incf	___flmul@bexp,w
  2223  05AB  1D03               	btfss	3,2
  2224  05AC  2DAE               	goto	u1751
  2225  05AD  2DAF               	goto	u1750
  2226  05AE                     u1751:
  2227  05AE  2DB7               	goto	l1697
  2228  05AF                     u1750:
  2229  05AF                     l1695:
  2230  05AF  3000               	movlw	0
  2231  05B0  00A3               	movwf	___flmul@b+3
  2232  05B1  3000               	movlw	0
  2233  05B2  00A2               	movwf	___flmul@b+2
  2234  05B3  3000               	movlw	0
  2235  05B4  00A1               	movwf	___flmul@b+1
  2236  05B5  3000               	movlw	0
  2237  05B6  00A0               	movwf	___flmul@b
  2238  05B7                     l1697:
  2239  05B7  17A2               	bsf	___flmul@b+2,7
  2240  05B8  2DC1               	goto	l1701
  2241  05B9                     l1699:
  2242  05B9  3000               	movlw	0
  2243  05BA  00A3               	movwf	___flmul@b+3
  2244  05BB  3000               	movlw	0
  2245  05BC  00A2               	movwf	___flmul@b+2
  2246  05BD  3000               	movlw	0
  2247  05BE  00A1               	movwf	___flmul@b+1
  2248  05BF  3000               	movlw	0
  2249  05C0  00A0               	movwf	___flmul@b
  2250  05C1                     l1701:
  2251  05C1  0827               	movf	___flmul@a+3,w
  2252  05C2  3980               	andlw	128
  2253  05C3  00A8               	movwf	??___flmul
  2254  05C4  0828               	movf	??___flmul,w
  2255  05C5  06AD               	xorwf	___flmul@sign,f
  2256  05C6                     l1703:
  2257  05C6  3527               	lslf	___flmul@a+3,w
  2258  05C7  00A8               	movwf	??___flmul
  2259  05C8  0828               	movf	??___flmul,w
  2260  05C9  00B2               	movwf	___flmul@aexp
  2261  05CA                     l1705:
  2262  05CA  1FA6               	btfss	___flmul@a+2,7
  2263  05CB  2DCD               	goto	u1761
  2264  05CC  2DCE               	goto	u1760
  2265  05CD                     u1761:
  2266  05CD  2DCF               	goto	l1709
  2267  05CE                     u1760:
  2268  05CE                     l1707:
  2269  05CE  1432               	bsf	___flmul@aexp,0
  2270  05CF                     l1709:
  2271  05CF  0832               	movf	___flmul@aexp,w
  2272  05D0  1903               	btfsc	3,2
  2273  05D1  2DD3               	goto	u1771
  2274  05D2  2DD4               	goto	u1770
  2275  05D3                     u1771:
  2276  05D3  2DE3               	goto	l1717
  2277  05D4                     u1770:
  2278  05D4                     l1711:
  2279  05D4  0A32               	incf	___flmul@aexp,w
  2280  05D5  1D03               	btfss	3,2
  2281  05D6  2DD8               	goto	u1781
  2282  05D7  2DD9               	goto	u1780
  2283  05D8                     u1781:
  2284  05D8  2DE1               	goto	l1715
  2285  05D9                     u1780:
  2286  05D9                     l1713:
  2287  05D9  3000               	movlw	0
  2288  05DA  00A7               	movwf	___flmul@a+3
  2289  05DB  3000               	movlw	0
  2290  05DC  00A6               	movwf	___flmul@a+2
  2291  05DD  3000               	movlw	0
  2292  05DE  00A5               	movwf	___flmul@a+1
  2293  05DF  3000               	movlw	0
  2294  05E0  00A4               	movwf	___flmul@a
  2295  05E1                     l1715:
  2296  05E1  17A6               	bsf	___flmul@a+2,7
  2297  05E2  2DEB               	goto	l1719
  2298  05E3                     l1717:
  2299  05E3  3000               	movlw	0
  2300  05E4  00A7               	movwf	___flmul@a+3
  2301  05E5  3000               	movlw	0
  2302  05E6  00A6               	movwf	___flmul@a+2
  2303  05E7  3000               	movlw	0
  2304  05E8  00A5               	movwf	___flmul@a+1
  2305  05E9  3000               	movlw	0
  2306  05EA  00A4               	movwf	___flmul@a
  2307  05EB                     l1719:
  2308  05EB  0832               	movf	___flmul@aexp,w
  2309  05EC  1903               	btfsc	3,2
  2310  05ED  2DEF               	goto	u1791
  2311  05EE  2DF0               	goto	u1790
  2312  05EF                     u1791:
  2313  05EF  2DF5               	goto	l1723
  2314  05F0                     u1790:
  2315  05F0                     l1721:
  2316  05F0  0833               	movf	___flmul@bexp,w
  2317  05F1  1D03               	btfss	3,2
  2318  05F2  2DF4               	goto	u1801
  2319  05F3  2DF5               	goto	u1800
  2320  05F4                     u1801:
  2321  05F4  2DFE               	goto	l1727
  2322  05F5                     u1800:
  2323  05F5                     l1723:
  2324  05F5  3000               	movlw	0
  2325  05F6  00A3               	movwf	?___flmul+3
  2326  05F7  3000               	movlw	0
  2327  05F8  00A2               	movwf	?___flmul+2
  2328  05F9  3000               	movlw	0
  2329  05FA  00A1               	movwf	?___flmul+1
  2330  05FB  3000               	movlw	0
  2331  05FC  00A0               	movwf	?___flmul
  2332  05FD  2FEC               	goto	l704
  2333  05FE                     l1727:
  2334  05FE  0820               	movf	___flmul@b,w
  2335  05FF  00A8               	movwf	??___flmul
  2336  0600  0828               	movf	??___flmul,w
  2337  0601  00F0               	movwf	__Umul8_16@multiplicand
  2338  0602  0826               	movf	___flmul@a+2,w
  2339  0603  318F  27DD  3185   	fcall	__Umul8_16
  2340  0606  0871               	movf	?__Umul8_16+1,w
  2341  0607  0020               	movlb	0	; select bank0
  2342  0608  00B9               	movwf	___flmul@temp+1
  2343  0609  0870               	movf	?__Umul8_16,w
  2344  060A  00B8               	movwf	___flmul@temp
  2345  060B                     l1729:
  2346  060B  0838               	movf	___flmul@temp,w
  2347  060C  00A8               	movwf	??___flmul
  2348  060D  01A9               	clrf	??___flmul+1
  2349  060E  01AA               	clrf	??___flmul+2
  2350  060F  01AB               	clrf	??___flmul+3
  2351  0610  082B               	movf	??___flmul+3,w
  2352  0611  00B1               	movwf	___flmul@grs+3
  2353  0612  082A               	movf	??___flmul+2,w
  2354  0613  00B0               	movwf	___flmul@grs+2
  2355  0614  0829               	movf	??___flmul+1,w
  2356  0615  00AF               	movwf	___flmul@grs+1
  2357  0616  0828               	movf	??___flmul,w
  2358  0617  00AE               	movwf	___flmul@grs
  2359  0618                     l1731:
  2360  0618  0839               	movf	___flmul@temp+1,w
  2361  0619  00A8               	movwf	??___flmul
  2362  061A  01A9               	clrf	??___flmul+1
  2363  061B  01AA               	clrf	??___flmul+2
  2364  061C  01AB               	clrf	??___flmul+3
  2365  061D  082B               	movf	??___flmul+3,w
  2366  061E  00B7               	movwf	___flmul@prod+3
  2367  061F  082A               	movf	??___flmul+2,w
  2368  0620  00B6               	movwf	___flmul@prod+2
  2369  0621  0829               	movf	??___flmul+1,w
  2370  0622  00B5               	movwf	___flmul@prod+1
  2371  0623  0828               	movf	??___flmul,w
  2372  0624  00B4               	movwf	___flmul@prod
  2373  0625  0821               	movf	___flmul@b+1,w
  2374  0626  00A8               	movwf	??___flmul
  2375  0627  0828               	movf	??___flmul,w
  2376  0628  00F0               	movwf	__Umul8_16@multiplicand
  2377  0629  0825               	movf	___flmul@a+1,w
  2378  062A  318F  27DD  3185   	fcall	__Umul8_16
  2379  062D  0871               	movf	?__Umul8_16+1,w
  2380  062E  0020               	movlb	0	; select bank0
  2381  062F  00B9               	movwf	___flmul@temp+1
  2382  0630  0870               	movf	?__Umul8_16,w
  2383  0631  00B8               	movwf	___flmul@temp
  2384  0632                     l1733:
  2385  0632  0838               	movf	___flmul@temp,w
  2386  0633  00A8               	movwf	??___flmul
  2387  0634  01A9               	clrf	??___flmul+1
  2388  0635  01AA               	clrf	??___flmul+2
  2389  0636  01AB               	clrf	??___flmul+3
  2390  0637  0828               	movf	??___flmul,w
  2391  0638  07AE               	addwf	___flmul@grs,f
  2392  0639  0829               	movf	??___flmul+1,w
  2393  063A  3DAF               	addwfc	___flmul@grs+1,f
  2394  063B  082A               	movf	??___flmul+2,w
  2395  063C  3DB0               	addwfc	___flmul@grs+2,f
  2396  063D  082B               	movf	??___flmul+3,w
  2397  063E  3DB1               	addwfc	___flmul@grs+3,f
  2398  063F                     l1735:
  2399  063F  0839               	movf	___flmul@temp+1,w
  2400  0640  00A8               	movwf	??___flmul
  2401  0641  01A9               	clrf	??___flmul+1
  2402  0642  01AA               	clrf	??___flmul+2
  2403  0643  01AB               	clrf	??___flmul+3
  2404  0644  0828               	movf	??___flmul,w
  2405  0645  07B4               	addwf	___flmul@prod,f
  2406  0646  0829               	movf	??___flmul+1,w
  2407  0647  3DB5               	addwfc	___flmul@prod+1,f
  2408  0648  082A               	movf	??___flmul+2,w
  2409  0649  3DB6               	addwfc	___flmul@prod+2,f
  2410  064A  082B               	movf	??___flmul+3,w
  2411  064B  3DB7               	addwfc	___flmul@prod+3,f
  2412  064C  0822               	movf	___flmul@b+2,w
  2413  064D  00A8               	movwf	??___flmul
  2414  064E  0828               	movf	??___flmul,w
  2415  064F  00F0               	movwf	__Umul8_16@multiplicand
  2416  0650  0824               	movf	___flmul@a,w
  2417  0651  318F  27DD  3185   	fcall	__Umul8_16
  2418  0654  0871               	movf	?__Umul8_16+1,w
  2419  0655  0020               	movlb	0	; select bank0
  2420  0656  00B9               	movwf	___flmul@temp+1
  2421  0657  0870               	movf	?__Umul8_16,w
  2422  0658  00B8               	movwf	___flmul@temp
  2423  0659                     l1737:
  2424  0659  0838               	movf	___flmul@temp,w
  2425  065A  00A8               	movwf	??___flmul
  2426  065B  01A9               	clrf	??___flmul+1
  2427  065C  01AA               	clrf	??___flmul+2
  2428  065D  01AB               	clrf	??___flmul+3
  2429  065E  0828               	movf	??___flmul,w
  2430  065F  07AE               	addwf	___flmul@grs,f
  2431  0660  0829               	movf	??___flmul+1,w
  2432  0661  3DAF               	addwfc	___flmul@grs+1,f
  2433  0662  082A               	movf	??___flmul+2,w
  2434  0663  3DB0               	addwfc	___flmul@grs+2,f
  2435  0664  082B               	movf	??___flmul+3,w
  2436  0665  3DB1               	addwfc	___flmul@grs+3,f
  2437  0666                     l1739:
  2438  0666  0839               	movf	___flmul@temp+1,w
  2439  0667  00A8               	movwf	??___flmul
  2440  0668  01A9               	clrf	??___flmul+1
  2441  0669  01AA               	clrf	??___flmul+2
  2442  066A  01AB               	clrf	??___flmul+3
  2443  066B  0828               	movf	??___flmul,w
  2444  066C  07B4               	addwf	___flmul@prod,f
  2445  066D  0829               	movf	??___flmul+1,w
  2446  066E  3DB5               	addwfc	___flmul@prod+1,f
  2447  066F  082A               	movf	??___flmul+2,w
  2448  0670  3DB6               	addwfc	___flmul@prod+2,f
  2449  0671  082B               	movf	??___flmul+3,w
  2450  0672  3DB7               	addwfc	___flmul@prod+3,f
  2451  0673                     l1741:
  2452  0673  3008               	movlw	8
  2453  0674                     u1815:
  2454  0674  35AE               	lslf	___flmul@grs,f
  2455  0675  0DAF               	rlf	___flmul@grs+1,f
  2456  0676  0DB0               	rlf	___flmul@grs+2,f
  2457  0677  0DB1               	rlf	___flmul@grs+3,f
  2458  0678  0B89               	decfsz	9,f
  2459  0679  2E74               	goto	u1815
  2460  067A                     l1743:
  2461  067A  0821               	movf	___flmul@b+1,w
  2462  067B  00A8               	movwf	??___flmul
  2463  067C  0828               	movf	??___flmul,w
  2464  067D  00F0               	movwf	__Umul8_16@multiplicand
  2465  067E  0824               	movf	___flmul@a,w
  2466  067F  318F  27DD  3185   	fcall	__Umul8_16
  2467  0682  0871               	movf	?__Umul8_16+1,w
  2468  0683  0020               	movlb	0	; select bank0
  2469  0684  00B9               	movwf	___flmul@temp+1
  2470  0685  0870               	movf	?__Umul8_16,w
  2471  0686  00B8               	movwf	___flmul@temp
  2472  0687                     l1745:
  2473  0687  0838               	movf	___flmul@temp,w
  2474  0688  07AE               	addwf	___flmul@grs,f
  2475  0689  0839               	movf	___flmul@temp+1,w
  2476  068A  3DAF               	addwfc	___flmul@grs+1,f
  2477  068B  3000               	movlw	0
  2478  068C  3DB0               	addwfc	___flmul@grs+2,f
  2479  068D  3DB1               	addwfc	___flmul@grs+3,f
  2480  068E                     l1747:
  2481  068E  0820               	movf	___flmul@b,w
  2482  068F  00A8               	movwf	??___flmul
  2483  0690  0828               	movf	??___flmul,w
  2484  0691  00F0               	movwf	__Umul8_16@multiplicand
  2485  0692  0825               	movf	___flmul@a+1,w
  2486  0693  318F  27DD  3185   	fcall	__Umul8_16
  2487  0696  0871               	movf	?__Umul8_16+1,w
  2488  0697  0020               	movlb	0	; select bank0
  2489  0698  00B9               	movwf	___flmul@temp+1
  2490  0699  0870               	movf	?__Umul8_16,w
  2491  069A  00B8               	movwf	___flmul@temp
  2492  069B                     l1749:
  2493  069B  0838               	movf	___flmul@temp,w
  2494  069C  07AE               	addwf	___flmul@grs,f
  2495  069D  0839               	movf	___flmul@temp+1,w
  2496  069E  3DAF               	addwfc	___flmul@grs+1,f
  2497  069F  3000               	movlw	0
  2498  06A0  3DB0               	addwfc	___flmul@grs+2,f
  2499  06A1  3DB1               	addwfc	___flmul@grs+3,f
  2500  06A2                     l1751:
  2501  06A2  3008               	movlw	8
  2502  06A3                     u1825:
  2503  06A3  35AE               	lslf	___flmul@grs,f
  2504  06A4  0DAF               	rlf	___flmul@grs+1,f
  2505  06A5  0DB0               	rlf	___flmul@grs+2,f
  2506  06A6  0DB1               	rlf	___flmul@grs+3,f
  2507  06A7  0B89               	decfsz	9,f
  2508  06A8  2EA3               	goto	u1825
  2509  06A9  0820               	movf	___flmul@b,w
  2510  06AA  00A8               	movwf	??___flmul
  2511  06AB  0828               	movf	??___flmul,w
  2512  06AC  00F0               	movwf	__Umul8_16@multiplicand
  2513  06AD  0824               	movf	___flmul@a,w
  2514  06AE  318F  27DD  3185   	fcall	__Umul8_16
  2515  06B1  0871               	movf	?__Umul8_16+1,w
  2516  06B2  0020               	movlb	0	; select bank0
  2517  06B3  00B9               	movwf	___flmul@temp+1
  2518  06B4  0870               	movf	?__Umul8_16,w
  2519  06B5  00B8               	movwf	___flmul@temp
  2520  06B6                     l1753:
  2521  06B6  0838               	movf	___flmul@temp,w
  2522  06B7  07AE               	addwf	___flmul@grs,f
  2523  06B8  0839               	movf	___flmul@temp+1,w
  2524  06B9  3DAF               	addwfc	___flmul@grs+1,f
  2525  06BA  3000               	movlw	0
  2526  06BB  3DB0               	addwfc	___flmul@grs+2,f
  2527  06BC  3DB1               	addwfc	___flmul@grs+3,f
  2528  06BD                     l1755:
  2529  06BD  0821               	movf	___flmul@b+1,w
  2530  06BE  00A8               	movwf	??___flmul
  2531  06BF  0828               	movf	??___flmul,w
  2532  06C0  00F0               	movwf	__Umul8_16@multiplicand
  2533  06C1  0826               	movf	___flmul@a+2,w
  2534  06C2  318F  27DD  3185   	fcall	__Umul8_16
  2535  06C5  0871               	movf	?__Umul8_16+1,w
  2536  06C6  0020               	movlb	0	; select bank0
  2537  06C7  00B9               	movwf	___flmul@temp+1
  2538  06C8  0870               	movf	?__Umul8_16,w
  2539  06C9  00B8               	movwf	___flmul@temp
  2540  06CA  0838               	movf	___flmul@temp,w
  2541  06CB  07B4               	addwf	___flmul@prod,f
  2542  06CC  0839               	movf	___flmul@temp+1,w
  2543  06CD  3DB5               	addwfc	___flmul@prod+1,f
  2544  06CE  3000               	movlw	0
  2545  06CF  3DB6               	addwfc	___flmul@prod+2,f
  2546  06D0  3DB7               	addwfc	___flmul@prod+3,f
  2547  06D1                     l1757:
  2548  06D1  0822               	movf	___flmul@b+2,w
  2549  06D2  00A8               	movwf	??___flmul
  2550  06D3  0828               	movf	??___flmul,w
  2551  06D4  00F0               	movwf	__Umul8_16@multiplicand
  2552  06D5  0825               	movf	___flmul@a+1,w
  2553  06D6  318F  27DD  3185   	fcall	__Umul8_16
  2554  06D9  0871               	movf	?__Umul8_16+1,w
  2555  06DA  0020               	movlb	0	; select bank0
  2556  06DB  00B9               	movwf	___flmul@temp+1
  2557  06DC  0870               	movf	?__Umul8_16,w
  2558  06DD  00B8               	movwf	___flmul@temp
  2559  06DE                     l1759:
  2560  06DE  0838               	movf	___flmul@temp,w
  2561  06DF  07B4               	addwf	___flmul@prod,f
  2562  06E0  0839               	movf	___flmul@temp+1,w
  2563  06E1  3DB5               	addwfc	___flmul@prod+1,f
  2564  06E2  3000               	movlw	0
  2565  06E3  3DB6               	addwfc	___flmul@prod+2,f
  2566  06E4  3DB7               	addwfc	___flmul@prod+3,f
  2567  06E5  0822               	movf	___flmul@b+2,w
  2568  06E6  00A8               	movwf	??___flmul
  2569  06E7  0828               	movf	??___flmul,w
  2570  06E8  00F0               	movwf	__Umul8_16@multiplicand
  2571  06E9  0826               	movf	___flmul@a+2,w
  2572  06EA  318F  27DD  3185   	fcall	__Umul8_16
  2573  06ED  0871               	movf	?__Umul8_16+1,w
  2574  06EE  0020               	movlb	0	; select bank0
  2575  06EF  00B9               	movwf	___flmul@temp+1
  2576  06F0  0870               	movf	?__Umul8_16,w
  2577  06F1  00B8               	movwf	___flmul@temp
  2578  06F2                     l1761:
  2579  06F2  0838               	movf	___flmul@temp,w
  2580  06F3  00A8               	movwf	??___flmul
  2581  06F4  0839               	movf	___flmul@temp+1,w
  2582  06F5  00A9               	movwf	??___flmul+1
  2583  06F6  01AA               	clrf	??___flmul+2
  2584  06F7  01AB               	clrf	??___flmul+3
  2585  06F8  3008               	movlw	8
  2586  06F9                     u1835:
  2587  06F9  35A8               	lslf	??___flmul,f
  2588  06FA  0DA9               	rlf	??___flmul+1,f
  2589  06FB  0DAA               	rlf	??___flmul+2,f
  2590  06FC  0DAB               	rlf	??___flmul+3,f
  2591  06FD                     u1830:
  2592  06FD  0B89               	decfsz	9,f
  2593  06FE  2EF9               	goto	u1835
  2594  06FF  0828               	movf	??___flmul,w
  2595  0700  07B4               	addwf	___flmul@prod,f
  2596  0701  0829               	movf	??___flmul+1,w
  2597  0702  3DB5               	addwfc	___flmul@prod+1,f
  2598  0703  082A               	movf	??___flmul+2,w
  2599  0704  3DB6               	addwfc	___flmul@prod+2,f
  2600  0705  082B               	movf	??___flmul+3,w
  2601  0706  3DB7               	addwfc	___flmul@prod+3,f
  2602  0707                     l1763:
  2603  0707  082E               	movf	___flmul@grs,w
  2604  0708  00A8               	movwf	??___flmul
  2605  0709  082F               	movf	___flmul@grs+1,w
  2606  070A  00A9               	movwf	??___flmul+1
  2607  070B  0830               	movf	___flmul@grs+2,w
  2608  070C  00AA               	movwf	??___flmul+2
  2609  070D  0831               	movf	___flmul@grs+3,w
  2610  070E  00AB               	movwf	??___flmul+3
  2611  070F  3018               	movlw	24
  2612  0710                     u1845:
  2613  0710  36AB               	lsrf	??___flmul+3,f
  2614  0711  0CAA               	rrf	??___flmul+2,f
  2615  0712  0CA9               	rrf	??___flmul+1,f
  2616  0713  0CA8               	rrf	??___flmul,f
  2617  0714                     u1840:
  2618  0714  0B89               	decfsz	9,f
  2619  0715  2F10               	goto	u1845
  2620  0716  0828               	movf	??___flmul,w
  2621  0717  07B4               	addwf	___flmul@prod,f
  2622  0718  0829               	movf	??___flmul+1,w
  2623  0719  3DB5               	addwfc	___flmul@prod+1,f
  2624  071A  082A               	movf	??___flmul+2,w
  2625  071B  3DB6               	addwfc	___flmul@prod+2,f
  2626  071C  082B               	movf	??___flmul+3,w
  2627  071D  3DB7               	addwfc	___flmul@prod+3,f
  2628  071E                     l1765:
  2629  071E  3008               	movlw	8
  2630  071F                     u1855:
  2631  071F  35AE               	lslf	___flmul@grs,f
  2632  0720  0DAF               	rlf	___flmul@grs+1,f
  2633  0721  0DB0               	rlf	___flmul@grs+2,f
  2634  0722  0DB1               	rlf	___flmul@grs+3,f
  2635  0723  0B89               	decfsz	9,f
  2636  0724  2F1F               	goto	u1855
  2637  0725                     l1767:
  2638  0725  0833               	movf	___flmul@bexp,w
  2639  0726  0732               	addwf	___flmul@aexp,w
  2640  0727  00A8               	movwf	??___flmul
  2641  0728  01A9               	clrf	??___flmul+1
  2642  0729  0DA9               	rlf	??___flmul+1,f
  2643  072A  0828               	movf	??___flmul,w
  2644  072B  3E82               	addlw	130
  2645  072C  00B8               	movwf	___flmul@temp
  2646  072D  30FF               	movlw	255
  2647  072E  3D29               	addwfc	??___flmul+1,w
  2648  072F  00B9               	movwf	___flmul@temp+1
  2649  0730  2F48               	goto	l1779
  2650  0731                     l1769:
  2651  0731  3001               	movlw	1
  2652  0732                     u1865:
  2653  0732  35B4               	lslf	___flmul@prod,f
  2654  0733  0DB5               	rlf	___flmul@prod+1,f
  2655  0734  0DB6               	rlf	___flmul@prod+2,f
  2656  0735  0DB7               	rlf	___flmul@prod+3,f
  2657  0736  0B89               	decfsz	9,f
  2658  0737  2F32               	goto	u1865
  2659  0738                     l1771:
  2660  0738  1FB1               	btfss	___flmul@grs+3,7
  2661  0739  2F3B               	goto	u1871
  2662  073A  2F3C               	goto	u1870
  2663  073B                     u1871:
  2664  073B  2F3D               	goto	l1775
  2665  073C                     u1870:
  2666  073C                     l1773:
  2667  073C  1434               	bsf	___flmul@prod,0
  2668  073D                     l1775:
  2669  073D  3001               	movlw	1
  2670  073E                     u1885:
  2671  073E  35AE               	lslf	___flmul@grs,f
  2672  073F  0DAF               	rlf	___flmul@grs+1,f
  2673  0740  0DB0               	rlf	___flmul@grs+2,f
  2674  0741  0DB1               	rlf	___flmul@grs+3,f
  2675  0742  0B89               	decfsz	9,f
  2676  0743  2F3E               	goto	u1885
  2677  0744                     l1777:
  2678  0744  30FF               	movlw	255
  2679  0745  07B8               	addwf	___flmul@temp,f
  2680  0746  30FF               	movlw	255
  2681  0747  3DB9               	addwfc	___flmul@temp+1,f
  2682  0748                     l1779:
  2683  0748  1FB6               	btfss	___flmul@prod+2,7
  2684  0749  2F4B               	goto	u1891
  2685  074A  2F4C               	goto	u1890
  2686  074B                     u1891:
  2687  074B  2F31               	goto	l1769
  2688  074C                     u1890:
  2689  074C                     l1781:
  2690  074C  01B2               	clrf	___flmul@aexp
  2691  074D                     l1783:
  2692  074D  1FB1               	btfss	___flmul@grs+3,7
  2693  074E  2F50               	goto	u1901
  2694  074F  2F51               	goto	u1900
  2695  0750                     u1901:
  2696  0750  2F6D               	goto	l1791
  2697  0751                     u1900:
  2698  0751                     l1785:
  2699  0751  30FF               	movlw	255
  2700  0752  052E               	andwf	___flmul@grs,w
  2701  0753  00A8               	movwf	??___flmul
  2702  0754  30FF               	movlw	255
  2703  0755  052F               	andwf	___flmul@grs+1,w
  2704  0756  00A9               	movwf	??___flmul+1
  2705  0757  30FF               	movlw	255
  2706  0758  0530               	andwf	___flmul@grs+2,w
  2707  0759  00AA               	movwf	??___flmul+2
  2708  075A  307F               	movlw	127
  2709  075B  0531               	andwf	___flmul@grs+3,w
  2710  075C  00AB               	movwf	??___flmul+3
  2711  075D  082B               	movf	??___flmul+3,w
  2712  075E  042A               	iorwf	??___flmul+2,w
  2713  075F  0429               	iorwf	??___flmul+1,w
  2714  0760  0428               	iorwf	??___flmul,w
  2715  0761  1903               	skipnz
  2716  0762  2F64               	goto	u1911
  2717  0763  2F65               	goto	u1910
  2718  0764                     u1911:
  2719  0764  2F68               	goto	l710
  2720  0765                     u1910:
  2721  0765                     l1787:
  2722  0765  01B2               	clrf	___flmul@aexp
  2723  0766  0AB2               	incf	___flmul@aexp,f
  2724  0767  2F6D               	goto	l1791
  2725  0768                     l710:
  2726  0768  1C34               	btfss	___flmul@prod,0
  2727  0769  2F6B               	goto	u1921
  2728  076A  2F6C               	goto	u1920
  2729  076B                     u1921:
  2730  076B  2F6D               	goto	l1791
  2731  076C                     u1920:
  2732  076C  2F65               	goto	l1787
  2733  076D                     l1791:
  2734  076D  0832               	movf	___flmul@aexp,w
  2735  076E  1903               	btfsc	3,2
  2736  076F  2F71               	goto	u1931
  2737  0770  2F72               	goto	u1930
  2738  0771                     u1931:
  2739  0771  2F9A               	goto	l1801
  2740  0772                     u1930:
  2741  0772                     l1793:
  2742  0772  3001               	movlw	1
  2743  0773  07B4               	addwf	___flmul@prod,f
  2744  0774  3000               	movlw	0
  2745  0775  3DB5               	addwfc	___flmul@prod+1,f
  2746  0776  3000               	movlw	0
  2747  0777  3DB6               	addwfc	___flmul@prod+2,f
  2748  0778  3000               	movlw	0
  2749  0779  3DB7               	addwfc	___flmul@prod+3,f
  2750  077A                     l1795:
  2751  077A  1C37               	btfss	___flmul@prod+3,0
  2752  077B  2F7D               	goto	u1941
  2753  077C  2F7E               	goto	u1940
  2754  077D                     u1941:
  2755  077D  2F9A               	goto	l1801
  2756  077E                     u1940:
  2757  077E                     l1797:
  2758  077E  0834               	movf	___flmul@prod,w
  2759  077F  00A8               	movwf	??___flmul
  2760  0780  0835               	movf	___flmul@prod+1,w
  2761  0781  00A9               	movwf	??___flmul+1
  2762  0782  0836               	movf	___flmul@prod+2,w
  2763  0783  00AA               	movwf	??___flmul+2
  2764  0784  0837               	movf	___flmul@prod+3,w
  2765  0785  00AB               	movwf	??___flmul+3
  2766  0786  3001               	movlw	1
  2767  0787  00AC               	movwf	??___flmul+4
  2768  0788                     u1955:
  2769  0788  37AB               	asrf	??___flmul+3,f
  2770  0789  0CAA               	rrf	??___flmul+2,f
  2771  078A  0CA9               	rrf	??___flmul+1,f
  2772  078B  0CA8               	rrf	??___flmul,f
  2773  078C                     u1950:
  2774  078C  0BAC               	decfsz	??___flmul+4,f
  2775  078D  2F88               	goto	u1955
  2776  078E  082B               	movf	??___flmul+3,w
  2777  078F  00B7               	movwf	___flmul@prod+3
  2778  0790  082A               	movf	??___flmul+2,w
  2779  0791  00B6               	movwf	___flmul@prod+2
  2780  0792  0829               	movf	??___flmul+1,w
  2781  0793  00B5               	movwf	___flmul@prod+1
  2782  0794  0828               	movf	??___flmul,w
  2783  0795  00B4               	movwf	___flmul@prod
  2784  0796                     l1799:
  2785  0796  3001               	movlw	1
  2786  0797  07B8               	addwf	___flmul@temp,f
  2787  0798  3000               	movlw	0
  2788  0799  3DB9               	addwfc	___flmul@temp+1,f
  2789  079A                     l1801:
  2790  079A  0839               	movf	___flmul@temp+1,w
  2791  079B  3A80               	xorlw	128
  2792  079C  00A8               	movwf	??___flmul
  2793  079D  3080               	movlw	128
  2794  079E  0228               	subwf	??___flmul,w
  2795  079F  1D03               	skipz
  2796  07A0  2FA3               	goto	u1965
  2797  07A1  30FF               	movlw	255
  2798  07A2  0238               	subwf	___flmul@temp,w
  2799  07A3                     u1965:
  2800  07A3  1C03               	skipc
  2801  07A4  2FA6               	goto	u1961
  2802  07A5  2FA7               	goto	u1960
  2803  07A6                     u1961:
  2804  07A6  2FB1               	goto	l1805
  2805  07A7                     u1960:
  2806  07A7                     l1803:
  2807  07A7  307F               	movlw	127
  2808  07A8  0020               	movlb	0	; select bank0
  2809  07A9  00B7               	movwf	___flmul@prod+3
  2810  07AA  3080               	movlw	128
  2811  07AB  00B6               	movwf	___flmul@prod+2
  2812  07AC  3000               	movlw	0
  2813  07AD  00B5               	movwf	___flmul@prod+1
  2814  07AE  3000               	movlw	0
  2815  07AF  00B4               	movwf	___flmul@prod
  2816  07B0  2FE0               	goto	l716
  2817  07B1                     l1805:
  2818  07B1  0020               	movlb	0	; select bank0
  2819  07B2  0839               	movf	___flmul@temp+1,w
  2820  07B3  3A80               	xorlw	128
  2821  07B4  00A8               	movwf	??___flmul
  2822  07B5  3080               	movlw	128
  2823  07B6  0228               	subwf	??___flmul,w
  2824  07B7  1D03               	skipz
  2825  07B8  2FBB               	goto	u1975
  2826  07B9  3001               	movlw	1
  2827  07BA  0238               	subwf	___flmul@temp,w
  2828  07BB                     u1975:
  2829  07BB  1803               	skipnc
  2830  07BC  2FBE               	goto	u1971
  2831  07BD  2FBF               	goto	u1970
  2832  07BE                     u1971:
  2833  07BE  2FCA               	goto	l1811
  2834  07BF                     u1970:
  2835  07BF                     l1807:
  2836  07BF  3000               	movlw	0
  2837  07C0  0020               	movlb	0	; select bank0
  2838  07C1  00B7               	movwf	___flmul@prod+3
  2839  07C2  3000               	movlw	0
  2840  07C3  00B6               	movwf	___flmul@prod+2
  2841  07C4  3000               	movlw	0
  2842  07C5  00B5               	movwf	___flmul@prod+1
  2843  07C6  3000               	movlw	0
  2844  07C7  00B4               	movwf	___flmul@prod
  2845  07C8                     l1809:
  2846  07C8  01AD               	clrf	___flmul@sign
  2847  07C9  2FE0               	goto	l716
  2848  07CA                     l1811:
  2849  07CA  0020               	movlb	0	; select bank0
  2850  07CB  0838               	movf	___flmul@temp,w
  2851  07CC  00A8               	movwf	??___flmul
  2852  07CD  0828               	movf	??___flmul,w
  2853  07CE  00B3               	movwf	___flmul@bexp
  2854  07CF  30FF               	movlw	255
  2855  07D0  05B4               	andwf	___flmul@prod,f
  2856  07D1  30FF               	movlw	255
  2857  07D2  05B5               	andwf	___flmul@prod+1,f
  2858  07D3  307F               	movlw	127
  2859  07D4  05B6               	andwf	___flmul@prod+2,f
  2860  07D5  3000               	movlw	0
  2861  07D6  05B7               	andwf	___flmul@prod+3,f
  2862  07D7                     l1813:
  2863  07D7  1C33               	btfss	___flmul@bexp,0
  2864  07D8  2FDA               	goto	u1981
  2865  07D9  2FDB               	goto	u1980
  2866  07DA                     u1981:
  2867  07DA  2FDC               	goto	l1817
  2868  07DB                     u1980:
  2869  07DB                     l1815:
  2870  07DB  17B6               	bsf	___flmul@prod+2,7
  2871  07DC                     l1817:
  2872  07DC  3633               	lsrf	___flmul@bexp,w
  2873  07DD  00A8               	movwf	??___flmul
  2874  07DE  0828               	movf	??___flmul,w
  2875  07DF  00B7               	movwf	___flmul@prod+3
  2876  07E0                     l716:
  2877  07E0  082D               	movf	___flmul@sign,w
  2878  07E1  00A8               	movwf	??___flmul
  2879  07E2  0828               	movf	??___flmul,w
  2880  07E3  04B7               	iorwf	___flmul@prod+3,f
  2881  07E4                     l1819:
  2882  07E4  0837               	movf	___flmul@prod+3,w
  2883  07E5  00A3               	movwf	?___flmul+3
  2884  07E6  0836               	movf	___flmul@prod+2,w
  2885  07E7  00A2               	movwf	?___flmul+2
  2886  07E8  0835               	movf	___flmul@prod+1,w
  2887  07E9  00A1               	movwf	?___flmul+1
  2888  07EA  0834               	movf	___flmul@prod,w
  2889  07EB  00A0               	movwf	?___flmul
  2890  07EC                     l704:
  2891  07EC  0008               	return
  2892  07ED                     __end_of___flmul:
  2893                           
  2894                           	psect	text4
  2895  0FDD                     __ptext4:	
  2896 ;; *************** function __Umul8_16 *****************
  2897 ;; Defined at:
  2898 ;;		line 4 in file "C:\Program Files\Microchip\xc8\v2.36\pic\sources\c99\common\Umul8_16.c"
  2899 ;; Parameters:    Size  Location     Type
  2900 ;;  multiplier      1    wreg     unsigned char 
  2901 ;;  multiplicand    1    0[COMMON] unsigned char 
  2902 ;; Auto vars:     Size  Location     Type
  2903 ;;  multiplier      1    8[COMMON] unsigned char 
  2904 ;;  word_mpld       2    6[COMMON] unsigned int 
  2905 ;;  product         2    4[COMMON] unsigned int 
  2906 ;; Return value:  Size  Location     Type
  2907 ;;                  2    0[COMMON] unsigned int 
  2908 ;; Registers used:
  2909 ;;		wreg, status,2, status,0
  2910 ;; Tracked objects:
  2911 ;;		On entry : 0/0
  2912 ;;		On exit  : 0/0
  2913 ;;		Unchanged: 0/0
  2914 ;; Data sizes:     COMMON   BANK0   BANK1   BANK2   BANK3   BANK4   BANK5   BANK6   BANK7   BANK8   BANK9  BANK10  BANK1
      +1  BANK12
  2915 ;;      Params:         2       0       0       0       0       0       0       0       0       0       0       0       
      +0       0
  2916 ;;      Locals:         5       0       0       0       0       0       0       0       0       0       0       0       
      +0       0
  2917 ;;      Temps:          2       0       0       0       0       0       0       0       0       0       0       0       
      +0       0
  2918 ;;      Totals:         9       0       0       0       0       0       0       0       0       0       0       0       
      +0       0
  2919 ;;Total ram usage:        9 bytes
  2920 ;; Hardware stack levels used: 1
  2921 ;; This function calls:
  2922 ;;		Nothing
  2923 ;; This function is called by:
  2924 ;;		___flmul
  2925 ;; This function uses a non-reentrant model
  2926 ;;
  2927                           
  2928  0FDD                     __Umul8_16:	
  2929                           ;psect for function __Umul8_16
  2930                           
  2931                           
  2932                           ;incstack = 0
  2933                           ; Regs used in __Umul8_16: [wreg+status,2+status,0]
  2934                           ;__Umul8_16@multiplier stored from wreg
  2935  0FDD  00F8               	movwf	__Umul8_16@multiplier
  2936  0FDE                     l1371:
  2937  0FDE  01F4               	clrf	__Umul8_16@product
  2938  0FDF  01F5               	clrf	__Umul8_16@product+1
  2939  0FE0                     l1373:
  2940  0FE0  0870               	movf	__Umul8_16@multiplicand,w
  2941  0FE1  00F2               	movwf	??__Umul8_16
  2942  0FE2  01F3               	clrf	??__Umul8_16+1
  2943  0FE3  0872               	movf	??__Umul8_16,w
  2944  0FE4  00F6               	movwf	__Umul8_16@word_mpld
  2945  0FE5  0873               	movf	??__Umul8_16+1,w
  2946  0FE6  00F7               	movwf	__Umul8_16@word_mpld+1
  2947  0FE7                     l1375:
  2948  0FE7  1C78               	btfss	__Umul8_16@multiplier,0
  2949  0FE8  2FEA               	goto	u1081
  2950  0FE9  2FEB               	goto	u1080
  2951  0FEA                     u1081:
  2952  0FEA  2FEF               	goto	l723
  2953  0FEB                     u1080:
  2954  0FEB                     l1377:
  2955  0FEB  0876               	movf	__Umul8_16@word_mpld,w
  2956  0FEC  07F4               	addwf	__Umul8_16@product,f
  2957  0FED  0877               	movf	__Umul8_16@word_mpld+1,w
  2958  0FEE  3DF5               	addwfc	__Umul8_16@product+1,f
  2959  0FEF                     l723:
  2960  0FEF  3001               	movlw	1
  2961  0FF0                     u1095:
  2962  0FF0  35F6               	lslf	__Umul8_16@word_mpld,f
  2963  0FF1  0DF7               	rlf	__Umul8_16@word_mpld+1,f
  2964  0FF2  0B89               	decfsz	9,f
  2965  0FF3  2FF0               	goto	u1095
  2966  0FF4  1003               	clrc
  2967  0FF5  0CF8               	rrf	__Umul8_16@multiplier,f
  2968  0FF6                     l1379:
  2969  0FF6  0878               	movf	__Umul8_16@multiplier,w
  2970  0FF7  1D03               	btfss	3,2
  2971  0FF8  2FFA               	goto	u1101
  2972  0FF9  2FFB               	goto	u1100
  2973  0FFA                     u1101:
  2974  0FFA  2FE7               	goto	l1375
  2975  0FFB                     u1100:
  2976  0FFB                     l1381:
  2977  0FFB  0875               	movf	__Umul8_16@product+1,w
  2978  0FFC  00F1               	movwf	?__Umul8_16+1
  2979  0FFD  0874               	movf	__Umul8_16@product,w
  2980  0FFE  00F0               	movwf	?__Umul8_16
  2981  0FFF                     l725:
  2982  0FFF  0008               	return
  2983  1000                     __end_of__Umul8_16:
  2984                           
  2985                           	psect	text5
  2986  03E2                     __ptext5:	
  2987 ;; *************** function ___fldiv *****************
  2988 ;; Defined at:
  2989 ;;		line 8 in file "C:\Program Files\Microchip\xc8\v2.36\pic\sources\c99\common\sprcdiv.c"
  2990 ;; Parameters:    Size  Location     Type
  2991 ;;  a               4   26[BANK0 ] unsigned int 
  2992 ;;  b               4   30[BANK0 ] unsigned int 
  2993 ;; Auto vars:     Size  Location     Type
  2994 ;;  grs             4   46[BANK0 ] unsigned long 
  2995 ;;  rem             4   39[BANK0 ] unsigned long 
  2996 ;;  new_exp         2   44[BANK0 ] int 
  2997 ;;  aexp            1   51[BANK0 ] unsigned char 
  2998 ;;  bexp            1   50[BANK0 ] unsigned char 
  2999 ;;  sign            1   43[BANK0 ] unsigned char 
  3000 ;; Return value:  Size  Location     Type
  3001 ;;                  4   26[BANK0 ] unsigned char 
  3002 ;; Registers used:
  3003 ;;		wreg, status,2, status,0
  3004 ;; Tracked objects:
  3005 ;;		On entry : 0/0
  3006 ;;		On exit  : 0/0
  3007 ;;		Unchanged: 0/0
  3008 ;; Data sizes:     COMMON   BANK0   BANK1   BANK2   BANK3   BANK4   BANK5   BANK6   BANK7   BANK8   BANK9  BANK10  BANK1
      +1  BANK12
  3009 ;;      Params:         0       8       0       0       0       0       0       0       0       0       0       0       
      +0       0
  3010 ;;      Locals:         0      13       0       0       0       0       0       0       0       0       0       0       
      +0       0
  3011 ;;      Temps:          0       5       0       0       0       0       0       0       0       0       0       0       
      +0       0
  3012 ;;      Totals:         0      26       0       0       0       0       0       0       0       0       0       0       
      +0       0
  3013 ;;Total ram usage:       26 bytes
  3014 ;; Hardware stack levels used: 1
  3015 ;; This function calls:
  3016 ;;		Nothing
  3017 ;; This function is called by:
  3018 ;;		_main
  3019 ;; This function uses a non-reentrant model
  3020 ;;
  3021                           
  3022  03E2                     ___fldiv:	
  3023                           ;psect for function ___fldiv
  3024                           
  3025  03E2                     l1543:	
  3026                           ;incstack = 0
  3027                           ; Regs used in ___fldiv: [wreg+status,2+status,0]
  3028                           
  3029  03E2  0020               	movlb	0	; select bank0
  3030  03E3  0841               	movf	___fldiv@b+3,w
  3031  03E4  3980               	andlw	128
  3032  03E5  00C2               	movwf	??___fldiv
  3033  03E6  0842               	movf	??___fldiv,w
  3034  03E7  00CB               	movwf	___fldiv@sign
  3035  03E8                     l1545:
  3036  03E8  3541               	lslf	___fldiv@b+3,w
  3037  03E9  00C2               	movwf	??___fldiv
  3038  03EA  0842               	movf	??___fldiv,w
  3039  03EB  00D2               	movwf	___fldiv@bexp
  3040  03EC                     l1547:
  3041  03EC  1FC0               	btfss	___fldiv@b+2,7
  3042  03ED  2BEF               	goto	u1441
  3043  03EE  2BF0               	goto	u1440
  3044  03EF                     u1441:
  3045  03EF  2BF1               	goto	l1551
  3046  03F0                     u1440:
  3047  03F0                     l1549:
  3048  03F0  1452               	bsf	___fldiv@bexp,0
  3049  03F1                     l1551:
  3050  03F1  0852               	movf	___fldiv@bexp,w
  3051  03F2  1903               	btfsc	3,2
  3052  03F3  2BF5               	goto	u1451
  3053  03F4  2BF6               	goto	u1450
  3054  03F5                     u1451:
  3055  03F5  2C06               	goto	l1561
  3056  03F6                     u1450:
  3057  03F6                     l1553:
  3058  03F6  0A52               	incf	___fldiv@bexp,w
  3059  03F7  1D03               	btfss	3,2
  3060  03F8  2BFA               	goto	u1461
  3061  03F9  2BFB               	goto	u1460
  3062  03FA                     u1461:
  3063  03FA  2C03               	goto	l1557
  3064  03FB                     u1460:
  3065  03FB                     l1555:
  3066  03FB  3000               	movlw	0
  3067  03FC  00C1               	movwf	___fldiv@b+3
  3068  03FD  3000               	movlw	0
  3069  03FE  00C0               	movwf	___fldiv@b+2
  3070  03FF  3000               	movlw	0
  3071  0400  00BF               	movwf	___fldiv@b+1
  3072  0401  3000               	movlw	0
  3073  0402  00BE               	movwf	___fldiv@b
  3074  0403                     l1557:
  3075  0403  17C0               	bsf	___fldiv@b+2,7
  3076  0404                     l1559:
  3077  0404  01C1               	clrf	___fldiv@b+3
  3078  0405  2C0E               	goto	l1563
  3079  0406                     l1561:
  3080  0406  3000               	movlw	0
  3081  0407  00C1               	movwf	___fldiv@b+3
  3082  0408  3000               	movlw	0
  3083  0409  00C0               	movwf	___fldiv@b+2
  3084  040A  3000               	movlw	0
  3085  040B  00BF               	movwf	___fldiv@b+1
  3086  040C  3000               	movlw	0
  3087  040D  00BE               	movwf	___fldiv@b
  3088  040E                     l1563:
  3089  040E  083D               	movf	___fldiv@a+3,w
  3090  040F  3980               	andlw	128
  3091  0410  00C2               	movwf	??___fldiv
  3092  0411  0842               	movf	??___fldiv,w
  3093  0412  06CB               	xorwf	___fldiv@sign,f
  3094  0413                     l1565:
  3095  0413  353D               	lslf	___fldiv@a+3,w
  3096  0414  00C2               	movwf	??___fldiv
  3097  0415  0842               	movf	??___fldiv,w
  3098  0416  00D3               	movwf	___fldiv@aexp
  3099  0417                     l1567:
  3100  0417  1FBC               	btfss	___fldiv@a+2,7
  3101  0418  2C1A               	goto	u1471
  3102  0419  2C1B               	goto	u1470
  3103  041A                     u1471:
  3104  041A  2C1C               	goto	l1571
  3105  041B                     u1470:
  3106  041B                     l1569:
  3107  041B  1453               	bsf	___fldiv@aexp,0
  3108  041C                     l1571:
  3109  041C  0853               	movf	___fldiv@aexp,w
  3110  041D  1903               	btfsc	3,2
  3111  041E  2C20               	goto	u1481
  3112  041F  2C21               	goto	u1480
  3113  0420                     u1481:
  3114  0420  2C31               	goto	l1581
  3115  0421                     u1480:
  3116  0421                     l1573:
  3117  0421  0A53               	incf	___fldiv@aexp,w
  3118  0422  1D03               	btfss	3,2
  3119  0423  2C25               	goto	u1491
  3120  0424  2C26               	goto	u1490
  3121  0425                     u1491:
  3122  0425  2C2E               	goto	l1577
  3123  0426                     u1490:
  3124  0426                     l1575:
  3125  0426  3000               	movlw	0
  3126  0427  00BD               	movwf	___fldiv@a+3
  3127  0428  3000               	movlw	0
  3128  0429  00BC               	movwf	___fldiv@a+2
  3129  042A  3000               	movlw	0
  3130  042B  00BB               	movwf	___fldiv@a+1
  3131  042C  3000               	movlw	0
  3132  042D  00BA               	movwf	___fldiv@a
  3133  042E                     l1577:
  3134  042E  17BC               	bsf	___fldiv@a+2,7
  3135  042F                     l1579:
  3136  042F  01BD               	clrf	___fldiv@a+3
  3137  0430  2C39               	goto	l664
  3138  0431                     l1581:
  3139  0431  3000               	movlw	0
  3140  0432  00BD               	movwf	___fldiv@a+3
  3141  0433  3000               	movlw	0
  3142  0434  00BC               	movwf	___fldiv@a+2
  3143  0435  3000               	movlw	0
  3144  0436  00BB               	movwf	___fldiv@a+1
  3145  0437  3000               	movlw	0
  3146  0438  00BA               	movwf	___fldiv@a
  3147  0439                     l664:
  3148  0439  083D               	movf	___fldiv@a+3,w
  3149  043A  043C               	iorwf	___fldiv@a+2,w
  3150  043B  043B               	iorwf	___fldiv@a+1,w
  3151  043C  043A               	iorwf	___fldiv@a,w
  3152  043D  1D03               	skipz
  3153  043E  2C40               	goto	u1501
  3154  043F  2C41               	goto	u1500
  3155  0440                     u1501:
  3156  0440  2C5A               	goto	l1591
  3157  0441                     u1500:
  3158  0441                     l1583:
  3159  0441  3000               	movlw	0
  3160  0442  00C1               	movwf	___fldiv@b+3
  3161  0443  3000               	movlw	0
  3162  0444  00C0               	movwf	___fldiv@b+2
  3163  0445  3000               	movlw	0
  3164  0446  00BF               	movwf	___fldiv@b+1
  3165  0447  3000               	movlw	0
  3166  0448  00BE               	movwf	___fldiv@b
  3167  0449  3080               	movlw	128
  3168  044A  04C0               	iorwf	___fldiv@b+2,f
  3169  044B  307F               	movlw	127
  3170  044C  04C1               	iorwf	___fldiv@b+3,f
  3171  044D                     l1585:
  3172  044D  084B               	movf	___fldiv@sign,w
  3173  044E  00C2               	movwf	??___fldiv
  3174  044F  0842               	movf	??___fldiv,w
  3175  0450  04C1               	iorwf	___fldiv@b+3,f
  3176  0451                     l1587:
  3177  0451  0841               	movf	___fldiv@b+3,w
  3178  0452  00BD               	movwf	?___fldiv+3
  3179  0453  0840               	movf	___fldiv@b+2,w
  3180  0454  00BC               	movwf	?___fldiv+2
  3181  0455  083F               	movf	___fldiv@b+1,w
  3182  0456  00BB               	movwf	?___fldiv+1
  3183  0457  083E               	movf	___fldiv@b,w
  3184  0458  00BA               	movwf	?___fldiv
  3185  0459  2D95               	goto	l666
  3186  045A                     l1591:
  3187  045A  0852               	movf	___fldiv@bexp,w
  3188  045B  1D03               	btfss	3,2
  3189  045C  2C5E               	goto	u1511
  3190  045D  2C5F               	goto	u1510
  3191  045E                     u1511:
  3192  045E  2C68               	goto	l1597
  3193  045F                     u1510:
  3194  045F                     l1593:
  3195  045F  3000               	movlw	0
  3196  0460  00BD               	movwf	?___fldiv+3
  3197  0461  3000               	movlw	0
  3198  0462  00BC               	movwf	?___fldiv+2
  3199  0463  3000               	movlw	0
  3200  0464  00BB               	movwf	?___fldiv+1
  3201  0465  3000               	movlw	0
  3202  0466  00BA               	movwf	?___fldiv
  3203  0467  2D95               	goto	l666
  3204  0468                     l1597:
  3205  0468  0852               	movf	___fldiv@bexp,w
  3206  0469  00C2               	movwf	??___fldiv
  3207  046A  01C3               	clrf	??___fldiv+1
  3208  046B  0843               	movf	??___fldiv+1,w
  3209  046C  00C5               	movwf	??___fldiv+3
  3210  046D  0853               	movf	___fldiv@aexp,w
  3211  046E  0242               	subwf	??___fldiv,w
  3212  046F  00C4               	movwf	??___fldiv+2
  3213  0470  1C03               	skipc
  3214  0471  03C5               	decf	??___fldiv+3,f
  3215  0472  0844               	movf	??___fldiv+2,w
  3216  0473  3E7F               	addlw	127
  3217  0474  00CC               	movwf	___fldiv@new_exp
  3218  0475  3000               	movlw	0
  3219  0476  3D45               	addwfc	??___fldiv+3,w
  3220  0477  00CD               	movwf	___fldiv@new_exp+1
  3221  0478                     l1599:
  3222  0478  0841               	movf	___fldiv@b+3,w
  3223  0479  00CA               	movwf	___fldiv@rem+3
  3224  047A  0840               	movf	___fldiv@b+2,w
  3225  047B  00C9               	movwf	___fldiv@rem+2
  3226  047C  083F               	movf	___fldiv@b+1,w
  3227  047D  00C8               	movwf	___fldiv@rem+1
  3228  047E  083E               	movf	___fldiv@b,w
  3229  047F  00C7               	movwf	___fldiv@rem
  3230  0480                     l1601:
  3231  0480  3000               	movlw	0
  3232  0481  00C1               	movwf	___fldiv@b+3
  3233  0482  3000               	movlw	0
  3234  0483  00C0               	movwf	___fldiv@b+2
  3235  0484  3000               	movlw	0
  3236  0485  00BF               	movwf	___fldiv@b+1
  3237  0486  3000               	movlw	0
  3238  0487  00BE               	movwf	___fldiv@b
  3239  0488                     l1603:
  3240  0488  3000               	movlw	0
  3241  0489  00D1               	movwf	___fldiv@grs+3
  3242  048A  3000               	movlw	0
  3243  048B  00D0               	movwf	___fldiv@grs+2
  3244  048C  3000               	movlw	0
  3245  048D  00CF               	movwf	___fldiv@grs+1
  3246  048E  3000               	movlw	0
  3247  048F  00CE               	movwf	___fldiv@grs
  3248  0490                     l1605:
  3249  0490  01D3               	clrf	___fldiv@aexp
  3250  0491  2CD0               	goto	l1625
  3251  0492                     l1607:
  3252  0492  0853               	movf	___fldiv@aexp,w
  3253  0493  1903               	btfsc	3,2
  3254  0494  2C96               	goto	u1521
  3255  0495  2C97               	goto	u1520
  3256  0496                     u1521:
  3257  0496  2CB1               	goto	l1617
  3258  0497                     u1520:
  3259  0497                     l1609:
  3260  0497  3001               	movlw	1
  3261  0498                     u1535:
  3262  0498  35C7               	lslf	___fldiv@rem,f
  3263  0499  0DC8               	rlf	___fldiv@rem+1,f
  3264  049A  0DC9               	rlf	___fldiv@rem+2,f
  3265  049B  0DCA               	rlf	___fldiv@rem+3,f
  3266  049C  0B89               	decfsz	9,f
  3267  049D  2C98               	goto	u1535
  3268  049E  3001               	movlw	1
  3269  049F                     u1545:
  3270  049F  35BE               	lslf	___fldiv@b,f
  3271  04A0  0DBF               	rlf	___fldiv@b+1,f
  3272  04A1  0DC0               	rlf	___fldiv@b+2,f
  3273  04A2  0DC1               	rlf	___fldiv@b+3,f
  3274  04A3  0B89               	decfsz	9,f
  3275  04A4  2C9F               	goto	u1545
  3276  04A5                     l1611:
  3277  04A5  1FD1               	btfss	___fldiv@grs+3,7
  3278  04A6  2CA8               	goto	u1551
  3279  04A7  2CA9               	goto	u1550
  3280  04A8                     u1551:
  3281  04A8  2CAA               	goto	l1615
  3282  04A9                     u1550:
  3283  04A9                     l1613:
  3284  04A9  143E               	bsf	___fldiv@b,0
  3285  04AA                     l1615:
  3286  04AA  3001               	movlw	1
  3287  04AB                     u1565:
  3288  04AB  35CE               	lslf	___fldiv@grs,f
  3289  04AC  0DCF               	rlf	___fldiv@grs+1,f
  3290  04AD  0DD0               	rlf	___fldiv@grs+2,f
  3291  04AE  0DD1               	rlf	___fldiv@grs+3,f
  3292  04AF  0B89               	decfsz	9,f
  3293  04B0  2CAB               	goto	u1565
  3294  04B1                     l1617:
  3295  04B1  083D               	movf	___fldiv@a+3,w
  3296  04B2  024A               	subwf	___fldiv@rem+3,w
  3297  04B3  1D03               	skipz
  3298  04B4  2CBF               	goto	u1575
  3299  04B5  083C               	movf	___fldiv@a+2,w
  3300  04B6  0249               	subwf	___fldiv@rem+2,w
  3301  04B7  1D03               	skipz
  3302  04B8  2CBF               	goto	u1575
  3303  04B9  083B               	movf	___fldiv@a+1,w
  3304  04BA  0248               	subwf	___fldiv@rem+1,w
  3305  04BB  1D03               	skipz
  3306  04BC  2CBF               	goto	u1575
  3307  04BD  083A               	movf	___fldiv@a,w
  3308  04BE  0247               	subwf	___fldiv@rem,w
  3309  04BF                     u1575:
  3310  04BF  1C03               	skipc
  3311  04C0  2CC2               	goto	u1571
  3312  04C1  2CC3               	goto	u1570
  3313  04C2                     u1571:
  3314  04C2  2CCC               	goto	l1623
  3315  04C3                     u1570:
  3316  04C3                     l1619:
  3317  04C3  1751               	bsf	___fldiv@grs+3,6
  3318  04C4                     l1621:
  3319  04C4  083A               	movf	___fldiv@a,w
  3320  04C5  02C7               	subwf	___fldiv@rem,f
  3321  04C6  083B               	movf	___fldiv@a+1,w
  3322  04C7  3BC8               	subwfb	___fldiv@rem+1,f
  3323  04C8  083C               	movf	___fldiv@a+2,w
  3324  04C9  3BC9               	subwfb	___fldiv@rem+2,f
  3325  04CA  083D               	movf	___fldiv@a+3,w
  3326  04CB  3BCA               	subwfb	___fldiv@rem+3,f
  3327  04CC                     l1623:
  3328  04CC  3001               	movlw	1
  3329  04CD  00C2               	movwf	??___fldiv
  3330  04CE  0842               	movf	??___fldiv,w
  3331  04CF  07D3               	addwf	___fldiv@aexp,f
  3332  04D0                     l1625:
  3333  04D0  301A               	movlw	26
  3334  04D1  0253               	subwf	___fldiv@aexp,w
  3335  04D2  1C03               	skipc
  3336  04D3  2CD5               	goto	u1581
  3337  04D4  2CD6               	goto	u1580
  3338  04D5                     u1581:
  3339  04D5  2C92               	goto	l1607
  3340  04D6                     u1580:
  3341  04D6                     l1627:
  3342  04D6  084A               	movf	___fldiv@rem+3,w
  3343  04D7  0449               	iorwf	___fldiv@rem+2,w
  3344  04D8  0448               	iorwf	___fldiv@rem+1,w
  3345  04D9  0447               	iorwf	___fldiv@rem,w
  3346  04DA  1903               	skipnz
  3347  04DB  2CDD               	goto	u1591
  3348  04DC  2CDE               	goto	u1590
  3349  04DD                     u1591:
  3350  04DD  2CF7               	goto	l1641
  3351  04DE                     u1590:
  3352  04DE                     l1629:
  3353  04DE  144E               	bsf	___fldiv@grs,0
  3354  04DF  2CF7               	goto	l1641
  3355  04E0                     l1631:
  3356  04E0  3001               	movlw	1
  3357  04E1                     u1605:
  3358  04E1  35BE               	lslf	___fldiv@b,f
  3359  04E2  0DBF               	rlf	___fldiv@b+1,f
  3360  04E3  0DC0               	rlf	___fldiv@b+2,f
  3361  04E4  0DC1               	rlf	___fldiv@b+3,f
  3362  04E5  0B89               	decfsz	9,f
  3363  04E6  2CE1               	goto	u1605
  3364  04E7                     l1633:
  3365  04E7  1FD1               	btfss	___fldiv@grs+3,7
  3366  04E8  2CEA               	goto	u1611
  3367  04E9  2CEB               	goto	u1610
  3368  04EA                     u1611:
  3369  04EA  2CEC               	goto	l1637
  3370  04EB                     u1610:
  3371  04EB                     l1635:
  3372  04EB  143E               	bsf	___fldiv@b,0
  3373  04EC                     l1637:
  3374  04EC  3001               	movlw	1
  3375  04ED                     u1625:
  3376  04ED  35CE               	lslf	___fldiv@grs,f
  3377  04EE  0DCF               	rlf	___fldiv@grs+1,f
  3378  04EF  0DD0               	rlf	___fldiv@grs+2,f
  3379  04F0  0DD1               	rlf	___fldiv@grs+3,f
  3380  04F1  0B89               	decfsz	9,f
  3381  04F2  2CED               	goto	u1625
  3382  04F3                     l1639:
  3383  04F3  30FF               	movlw	255
  3384  04F4  07CC               	addwf	___fldiv@new_exp,f
  3385  04F5  30FF               	movlw	255
  3386  04F6  3DCD               	addwfc	___fldiv@new_exp+1,f
  3387  04F7                     l1641:
  3388  04F7  1FC0               	btfss	___fldiv@b+2,7
  3389  04F8  2CFA               	goto	u1631
  3390  04F9  2CFB               	goto	u1630
  3391  04FA                     u1631:
  3392  04FA  2CE0               	goto	l1631
  3393  04FB                     u1630:
  3394  04FB                     l1643:
  3395  04FB  01D3               	clrf	___fldiv@aexp
  3396  04FC                     l1645:
  3397  04FC  1FD1               	btfss	___fldiv@grs+3,7
  3398  04FD  2CFF               	goto	u1641
  3399  04FE  2D00               	goto	u1640
  3400  04FF                     u1641:
  3401  04FF  2D1C               	goto	l1653
  3402  0500                     u1640:
  3403  0500                     l1647:
  3404  0500  30FF               	movlw	255
  3405  0501  054E               	andwf	___fldiv@grs,w
  3406  0502  00C2               	movwf	??___fldiv
  3407  0503  30FF               	movlw	255
  3408  0504  054F               	andwf	___fldiv@grs+1,w
  3409  0505  00C3               	movwf	??___fldiv+1
  3410  0506  30FF               	movlw	255
  3411  0507  0550               	andwf	___fldiv@grs+2,w
  3412  0508  00C4               	movwf	??___fldiv+2
  3413  0509  307F               	movlw	127
  3414  050A  0551               	andwf	___fldiv@grs+3,w
  3415  050B  00C5               	movwf	??___fldiv+3
  3416  050C  0845               	movf	??___fldiv+3,w
  3417  050D  0444               	iorwf	??___fldiv+2,w
  3418  050E  0443               	iorwf	??___fldiv+1,w
  3419  050F  0442               	iorwf	??___fldiv,w
  3420  0510  1903               	skipnz
  3421  0511  2D13               	goto	u1651
  3422  0512  2D14               	goto	u1650
  3423  0513                     u1651:
  3424  0513  2D17               	goto	l680
  3425  0514                     u1650:
  3426  0514                     l1649:
  3427  0514  01D3               	clrf	___fldiv@aexp
  3428  0515  0AD3               	incf	___fldiv@aexp,f
  3429  0516  2D1C               	goto	l1653
  3430  0517                     l680:
  3431  0517  1C3E               	btfss	___fldiv@b,0
  3432  0518  2D1A               	goto	u1661
  3433  0519  2D1B               	goto	u1660
  3434  051A                     u1661:
  3435  051A  2D1C               	goto	l1653
  3436  051B                     u1660:
  3437  051B  2D14               	goto	l1649
  3438  051C                     l1653:
  3439  051C  0853               	movf	___fldiv@aexp,w
  3440  051D  1903               	btfsc	3,2
  3441  051E  2D20               	goto	u1671
  3442  051F  2D21               	goto	u1670
  3443  0520                     u1671:
  3444  0520  2D49               	goto	l1663
  3445  0521                     u1670:
  3446  0521                     l1655:
  3447  0521  3001               	movlw	1
  3448  0522  07BE               	addwf	___fldiv@b,f
  3449  0523  3000               	movlw	0
  3450  0524  3DBF               	addwfc	___fldiv@b+1,f
  3451  0525  3000               	movlw	0
  3452  0526  3DC0               	addwfc	___fldiv@b+2,f
  3453  0527  3000               	movlw	0
  3454  0528  3DC1               	addwfc	___fldiv@b+3,f
  3455  0529                     l1657:
  3456  0529  1C41               	btfss	___fldiv@b+3,0
  3457  052A  2D2C               	goto	u1681
  3458  052B  2D2D               	goto	u1680
  3459  052C                     u1681:
  3460  052C  2D49               	goto	l1663
  3461  052D                     u1680:
  3462  052D                     l1659:
  3463  052D  083E               	movf	___fldiv@b,w
  3464  052E  00C2               	movwf	??___fldiv
  3465  052F  083F               	movf	___fldiv@b+1,w
  3466  0530  00C3               	movwf	??___fldiv+1
  3467  0531  0840               	movf	___fldiv@b+2,w
  3468  0532  00C4               	movwf	??___fldiv+2
  3469  0533  0841               	movf	___fldiv@b+3,w
  3470  0534  00C5               	movwf	??___fldiv+3
  3471  0535  3001               	movlw	1
  3472  0536  00C6               	movwf	??___fldiv+4
  3473  0537                     u1695:
  3474  0537  37C5               	asrf	??___fldiv+3,f
  3475  0538  0CC4               	rrf	??___fldiv+2,f
  3476  0539  0CC3               	rrf	??___fldiv+1,f
  3477  053A  0CC2               	rrf	??___fldiv,f
  3478  053B                     u1690:
  3479  053B  0BC6               	decfsz	??___fldiv+4,f
  3480  053C  2D37               	goto	u1695
  3481  053D  0845               	movf	??___fldiv+3,w
  3482  053E  00C1               	movwf	___fldiv@b+3
  3483  053F  0844               	movf	??___fldiv+2,w
  3484  0540  00C0               	movwf	___fldiv@b+2
  3485  0541  0843               	movf	??___fldiv+1,w
  3486  0542  00BF               	movwf	___fldiv@b+1
  3487  0543  0842               	movf	??___fldiv,w
  3488  0544  00BE               	movwf	___fldiv@b
  3489  0545                     l1661:
  3490  0545  3001               	movlw	1
  3491  0546  07CC               	addwf	___fldiv@new_exp,f
  3492  0547  3000               	movlw	0
  3493  0548  3DCD               	addwfc	___fldiv@new_exp+1,f
  3494  0549                     l1663:
  3495  0549  084D               	movf	___fldiv@new_exp+1,w
  3496  054A  3A80               	xorlw	128
  3497  054B  00C2               	movwf	??___fldiv
  3498  054C  3080               	movlw	128
  3499  054D  0242               	subwf	??___fldiv,w
  3500  054E  1D03               	skipz
  3501  054F  2D52               	goto	u1705
  3502  0550  30FF               	movlw	255
  3503  0551  024C               	subwf	___fldiv@new_exp,w
  3504  0552                     u1705:
  3505  0552  1C03               	skipc
  3506  0553  2D55               	goto	u1701
  3507  0554  2D56               	goto	u1700
  3508  0555                     u1701:
  3509  0555  2D63               	goto	l685
  3510  0556                     u1700:
  3511  0556                     l1665:
  3512  0556  30FF               	movlw	255
  3513  0557  0020               	movlb	0	; select bank0
  3514  0558  00CC               	movwf	___fldiv@new_exp
  3515  0559  3000               	movlw	0
  3516  055A  00CD               	movwf	___fldiv@new_exp+1
  3517  055B  3000               	movlw	0
  3518  055C  00C1               	movwf	___fldiv@b+3
  3519  055D  3000               	movlw	0
  3520  055E  00C0               	movwf	___fldiv@b+2
  3521  055F  3000               	movlw	0
  3522  0560  00BF               	movwf	___fldiv@b+1
  3523  0561  3000               	movlw	0
  3524  0562  00BE               	movwf	___fldiv@b
  3525  0563                     l685:
  3526  0563  0020               	movlb	0	; select bank0
  3527  0564  084D               	movf	___fldiv@new_exp+1,w
  3528  0565  3A80               	xorlw	128
  3529  0566  00C2               	movwf	??___fldiv
  3530  0567  3080               	movlw	128
  3531  0568  0242               	subwf	??___fldiv,w
  3532  0569  1D03               	skipz
  3533  056A  2D6D               	goto	u1715
  3534  056B  3001               	movlw	1
  3535  056C  024C               	subwf	___fldiv@new_exp,w
  3536  056D                     u1715:
  3537  056D  1803               	skipnc
  3538  056E  2D70               	goto	u1711
  3539  056F  2D71               	goto	u1710
  3540  0570                     u1711:
  3541  0570  2D7D               	goto	l686
  3542  0571                     u1710:
  3543  0571                     l1667:
  3544  0571  0020               	movlb	0	; select bank0
  3545  0572  01CC               	clrf	___fldiv@new_exp
  3546  0573  01CD               	clrf	___fldiv@new_exp+1
  3547  0574                     l1669:
  3548  0574  3000               	movlw	0
  3549  0575  00C1               	movwf	___fldiv@b+3
  3550  0576  3000               	movlw	0
  3551  0577  00C0               	movwf	___fldiv@b+2
  3552  0578  3000               	movlw	0
  3553  0579  00BF               	movwf	___fldiv@b+1
  3554  057A  3000               	movlw	0
  3555  057B  00BE               	movwf	___fldiv@b
  3556  057C                     l1671:
  3557  057C  01CB               	clrf	___fldiv@sign
  3558  057D                     l686:
  3559  057D  0020               	movlb	0	; select bank0
  3560  057E  084C               	movf	___fldiv@new_exp,w
  3561  057F  00C2               	movwf	??___fldiv
  3562  0580  0842               	movf	??___fldiv,w
  3563  0581  00D2               	movwf	___fldiv@bexp
  3564  0582                     l1673:
  3565  0582  1C52               	btfss	___fldiv@bexp,0
  3566  0583  2D85               	goto	u1721
  3567  0584  2D86               	goto	u1720
  3568  0585                     u1721:
  3569  0585  2D88               	goto	l1677
  3570  0586                     u1720:
  3571  0586                     l1675:
  3572  0586  17C0               	bsf	___fldiv@b+2,7
  3573  0587  2D8C               	goto	l688
  3574  0588                     l1677:
  3575  0588  307F               	movlw	127
  3576  0589  00C2               	movwf	??___fldiv
  3577  058A  0842               	movf	??___fldiv,w
  3578  058B  05C0               	andwf	___fldiv@b+2,f
  3579  058C                     l688:
  3580  058C  3652               	lsrf	___fldiv@bexp,w
  3581  058D  00C2               	movwf	??___fldiv
  3582  058E  0842               	movf	??___fldiv,w
  3583  058F  00C1               	movwf	___fldiv@b+3
  3584  0590  084B               	movf	___fldiv@sign,w
  3585  0591  00C2               	movwf	??___fldiv
  3586  0592  0842               	movf	??___fldiv,w
  3587  0593  04C1               	iorwf	___fldiv@b+3,f
  3588  0594  2C51               	goto	l1587
  3589  0595                     l666:
  3590  0595  0008               	return
  3591  0596                     __end_of___fldiv:
  3592                           
  3593                           	psect	text6
  3594  00D4                     __ptext6:	
  3595 ;; *************** function ___almod *****************
  3596 ;; Defined at:
  3597 ;;		line 5 in file "C:\Program Files\Microchip\xc8\v2.36\pic\sources\c99\common\almod.c"
  3598 ;; Parameters:    Size  Location     Type
  3599 ;;  divisor         4    6[BANK0 ] long 
  3600 ;;  dividend        4   10[BANK0 ] long 
  3601 ;; Auto vars:     Size  Location     Type
  3602 ;;  sign            1   11[COMMON] unsigned char 
  3603 ;;  counter         1   10[COMMON] unsigned char 
  3604 ;; Return value:  Size  Location     Type
  3605 ;;                  4    6[BANK0 ] long 
  3606 ;; Registers used:
  3607 ;;		wreg, status,2, status,0
  3608 ;; Tracked objects:
  3609 ;;		On entry : 0/0
  3610 ;;		On exit  : 0/0
  3611 ;;		Unchanged: 0/0
  3612 ;; Data sizes:     COMMON   BANK0   BANK1   BANK2   BANK3   BANK4   BANK5   BANK6   BANK7   BANK8   BANK9  BANK10  BANK1
      +1  BANK12
  3613 ;;      Params:         0       8       0       0       0       0       0       0       0       0       0       0       
      +0       0
  3614 ;;      Locals:         2       0       0       0       0       0       0       0       0       0       0       0       
      +0       0
  3615 ;;      Temps:          1       0       0       0       0       0       0       0       0       0       0       0       
      +0       0
  3616 ;;      Totals:         3       8       0       0       0       0       0       0       0       0       0       0       
      +0       0
  3617 ;;Total ram usage:       11 bytes
  3618 ;; Hardware stack levels used: 1
  3619 ;; This function calls:
  3620 ;;		Nothing
  3621 ;; This function is called by:
  3622 ;;		_main
  3623 ;; This function uses a non-reentrant model
  3624 ;;
  3625                           
  3626  00D4                     ___almod:	
  3627                           ;psect for function ___almod
  3628                           
  3629  00D4                     l1475:	
  3630                           ;incstack = 0
  3631                           ; Regs used in ___almod: [wreg+status,2+status,0]
  3632                           
  3633  00D4  01FB               	clrf	___almod@sign
  3634  00D5                     l1477:
  3635  00D5  0020               	movlb	0	; select bank0
  3636  00D6  1FAD               	btfss	___almod@dividend+3,7
  3637  00D7  28D9               	goto	u1251
  3638  00D8  28DA               	goto	u1250
  3639  00D9                     u1251:
  3640  00D9  28E7               	goto	l385
  3641  00DA                     u1250:
  3642  00DA                     l1479:
  3643  00DA  09AA               	comf	___almod@dividend,f
  3644  00DB  09AB               	comf	___almod@dividend+1,f
  3645  00DC  09AC               	comf	___almod@dividend+2,f
  3646  00DD  09AD               	comf	___almod@dividend+3,f
  3647  00DE  0AAA               	incf	___almod@dividend,f
  3648  00DF  1903               	skipnz
  3649  00E0  0AAB               	incf	___almod@dividend+1,f
  3650  00E1  1903               	skipnz
  3651  00E2  0AAC               	incf	___almod@dividend+2,f
  3652  00E3  1903               	skipnz
  3653  00E4  0AAD               	incf	___almod@dividend+3,f
  3654  00E5  01FB               	clrf	___almod@sign
  3655  00E6  0AFB               	incf	___almod@sign,f
  3656  00E7                     l385:
  3657  00E7  1FA9               	btfss	___almod@divisor+3,7
  3658  00E8  28EA               	goto	u1261
  3659  00E9  28EB               	goto	u1260
  3660  00EA                     u1261:
  3661  00EA  28F6               	goto	l1483
  3662  00EB                     u1260:
  3663  00EB                     l1481:
  3664  00EB  09A6               	comf	___almod@divisor,f
  3665  00EC  09A7               	comf	___almod@divisor+1,f
  3666  00ED  09A8               	comf	___almod@divisor+2,f
  3667  00EE  09A9               	comf	___almod@divisor+3,f
  3668  00EF  0AA6               	incf	___almod@divisor,f
  3669  00F0  1903               	skipnz
  3670  00F1  0AA7               	incf	___almod@divisor+1,f
  3671  00F2  1903               	skipnz
  3672  00F3  0AA8               	incf	___almod@divisor+2,f
  3673  00F4  1903               	skipnz
  3674  00F5  0AA9               	incf	___almod@divisor+3,f
  3675  00F6                     l1483:
  3676  00F6  0829               	movf	___almod@divisor+3,w
  3677  00F7  0428               	iorwf	___almod@divisor+2,w
  3678  00F8  0427               	iorwf	___almod@divisor+1,w
  3679  00F9  0426               	iorwf	___almod@divisor,w
  3680  00FA  1903               	skipnz
  3681  00FB  28FD               	goto	u1271
  3682  00FC  28FE               	goto	u1270
  3683  00FD                     u1271:
  3684  00FD  2937               	goto	l1499
  3685  00FE                     u1270:
  3686  00FE                     l1485:
  3687  00FE  01FA               	clrf	___almod@counter
  3688  00FF  0AFA               	incf	___almod@counter,f
  3689  0100  290C               	goto	l1489
  3690  0101                     l1487:
  3691  0101  3001               	movlw	1
  3692  0102                     u1285:
  3693  0102  35A6               	lslf	___almod@divisor,f
  3694  0103  0DA7               	rlf	___almod@divisor+1,f
  3695  0104  0DA8               	rlf	___almod@divisor+2,f
  3696  0105  0DA9               	rlf	___almod@divisor+3,f
  3697  0106  0B89               	decfsz	9,f
  3698  0107  2902               	goto	u1285
  3699  0108  3001               	movlw	1
  3700  0109  00F9               	movwf	??___almod
  3701  010A  0879               	movf	??___almod,w
  3702  010B  07FA               	addwf	___almod@counter,f
  3703  010C                     l1489:
  3704  010C  1FA9               	btfss	___almod@divisor+3,7
  3705  010D  290F               	goto	u1291
  3706  010E  2910               	goto	u1290
  3707  010F                     u1291:
  3708  010F  2901               	goto	l1487
  3709  0110                     u1290:
  3710  0110                     l1491:
  3711  0110  0829               	movf	___almod@divisor+3,w
  3712  0111  022D               	subwf	___almod@dividend+3,w
  3713  0112  1D03               	skipz
  3714  0113  291E               	goto	u1305
  3715  0114  0828               	movf	___almod@divisor+2,w
  3716  0115  022C               	subwf	___almod@dividend+2,w
  3717  0116  1D03               	skipz
  3718  0117  291E               	goto	u1305
  3719  0118  0827               	movf	___almod@divisor+1,w
  3720  0119  022B               	subwf	___almod@dividend+1,w
  3721  011A  1D03               	skipz
  3722  011B  291E               	goto	u1305
  3723  011C  0826               	movf	___almod@divisor,w
  3724  011D  022A               	subwf	___almod@dividend,w
  3725  011E                     u1305:
  3726  011E  1C03               	skipc
  3727  011F  2921               	goto	u1301
  3728  0120  2922               	goto	u1300
  3729  0121                     u1301:
  3730  0121  292A               	goto	l1495
  3731  0122                     u1300:
  3732  0122                     l1493:
  3733  0122  0826               	movf	___almod@divisor,w
  3734  0123  02AA               	subwf	___almod@dividend,f
  3735  0124  0827               	movf	___almod@divisor+1,w
  3736  0125  3BAB               	subwfb	___almod@dividend+1,f
  3737  0126  0828               	movf	___almod@divisor+2,w
  3738  0127  3BAC               	subwfb	___almod@dividend+2,f
  3739  0128  0829               	movf	___almod@divisor+3,w
  3740  0129  3BAD               	subwfb	___almod@dividend+3,f
  3741  012A                     l1495:
  3742  012A  3001               	movlw	1
  3743  012B                     u1315:
  3744  012B  36A9               	lsrf	___almod@divisor+3,f
  3745  012C  0CA8               	rrf	___almod@divisor+2,f
  3746  012D  0CA7               	rrf	___almod@divisor+1,f
  3747  012E  0CA6               	rrf	___almod@divisor,f
  3748  012F  0B89               	decfsz	9,f
  3749  0130  292B               	goto	u1315
  3750  0131                     l1497:
  3751  0131  3001               	movlw	1
  3752  0132  02FA               	subwf	___almod@counter,f
  3753  0133  1D03               	btfss	3,2
  3754  0134  2936               	goto	u1321
  3755  0135  2937               	goto	u1320
  3756  0136                     u1321:
  3757  0136  2910               	goto	l1491
  3758  0137                     u1320:
  3759  0137                     l1499:
  3760  0137  087B               	movf	___almod@sign,w
  3761  0138  1903               	btfsc	3,2
  3762  0139  293B               	goto	u1331
  3763  013A  293C               	goto	u1330
  3764  013B                     u1331:
  3765  013B  2947               	goto	l1503
  3766  013C                     u1330:
  3767  013C                     l1501:
  3768  013C  09AA               	comf	___almod@dividend,f
  3769  013D  09AB               	comf	___almod@dividend+1,f
  3770  013E  09AC               	comf	___almod@dividend+2,f
  3771  013F  09AD               	comf	___almod@dividend+3,f
  3772  0140  0AAA               	incf	___almod@dividend,f
  3773  0141  1903               	skipnz
  3774  0142  0AAB               	incf	___almod@dividend+1,f
  3775  0143  1903               	skipnz
  3776  0144  0AAC               	incf	___almod@dividend+2,f
  3777  0145  1903               	skipnz
  3778  0146  0AAD               	incf	___almod@dividend+3,f
  3779  0147                     l1503:
  3780  0147  082D               	movf	___almod@dividend+3,w
  3781  0148  00A9               	movwf	?___almod+3
  3782  0149  082C               	movf	___almod@dividend+2,w
  3783  014A  00A8               	movwf	?___almod+2
  3784  014B  082B               	movf	___almod@dividend+1,w
  3785  014C  00A7               	movwf	?___almod+1
  3786  014D  082A               	movf	___almod@dividend,w
  3787  014E  00A6               	movwf	?___almod
  3788  014F                     l395:
  3789  014F  0008               	return
  3790  0150                     __end_of___almod:
  3791                           
  3792                           	psect	text7
  3793  0150                     __ptext7:	
  3794 ;; *************** function ___aldiv *****************
  3795 ;; Defined at:
  3796 ;;		line 5 in file "C:\Program Files\Microchip\xc8\v2.36\pic\sources\c99\common\aldiv.c"
  3797 ;; Parameters:    Size  Location     Type
  3798 ;;  divisor         4    0[COMMON] long 
  3799 ;;  dividend        4    4[COMMON] long 
  3800 ;; Auto vars:     Size  Location     Type
  3801 ;;  quotient        4    2[BANK0 ] long 
  3802 ;;  sign            1    1[BANK0 ] unsigned char 
  3803 ;;  counter         1    0[BANK0 ] unsigned char 
  3804 ;; Return value:  Size  Location     Type
  3805 ;;                  4    0[COMMON] long 
  3806 ;; Registers used:
  3807 ;;		wreg, status,2, status,0
  3808 ;; Tracked objects:
  3809 ;;		On entry : 0/0
  3810 ;;		On exit  : 0/0
  3811 ;;		Unchanged: 0/0
  3812 ;; Data sizes:     COMMON   BANK0   BANK1   BANK2   BANK3   BANK4   BANK5   BANK6   BANK7   BANK8   BANK9  BANK10  BANK1
      +1  BANK12
  3813 ;;      Params:         8       0       0       0       0       0       0       0       0       0       0       0       
      +0       0
  3814 ;;      Locals:         0       6       0       0       0       0       0       0       0       0       0       0       
      +0       0
  3815 ;;      Temps:          1       0       0       0       0       0       0       0       0       0       0       0       
      +0       0
  3816 ;;      Totals:         9       6       0       0       0       0       0       0       0       0       0       0       
      +0       0
  3817 ;;Total ram usage:       15 bytes
  3818 ;; Hardware stack levels used: 1
  3819 ;; This function calls:
  3820 ;;		Nothing
  3821 ;; This function is called by:
  3822 ;;		_main
  3823 ;; This function uses a non-reentrant model
  3824 ;;
  3825                           
  3826  0150                     ___aldiv:	
  3827                           ;psect for function ___aldiv
  3828                           
  3829  0150                     l1435:	
  3830                           ;incstack = 0
  3831                           ; Regs used in ___aldiv: [wreg+status,2+status,0]
  3832                           
  3833  0150  0020               	movlb	0	; select bank0
  3834  0151  01A1               	clrf	___aldiv@sign
  3835  0152                     l1437:
  3836  0152  1FF3               	btfss	___aldiv@divisor+3,7
  3837  0153  2955               	goto	u1151
  3838  0154  2956               	goto	u1150
  3839  0155                     u1151:
  3840  0155  2963               	goto	l372
  3841  0156                     u1150:
  3842  0156                     l1439:
  3843  0156  09F0               	comf	___aldiv@divisor,f
  3844  0157  09F1               	comf	___aldiv@divisor+1,f
  3845  0158  09F2               	comf	___aldiv@divisor+2,f
  3846  0159  09F3               	comf	___aldiv@divisor+3,f
  3847  015A  0AF0               	incf	___aldiv@divisor,f
  3848  015B  1903               	skipnz
  3849  015C  0AF1               	incf	___aldiv@divisor+1,f
  3850  015D  1903               	skipnz
  3851  015E  0AF2               	incf	___aldiv@divisor+2,f
  3852  015F  1903               	skipnz
  3853  0160  0AF3               	incf	___aldiv@divisor+3,f
  3854  0161  01A1               	clrf	___aldiv@sign
  3855  0162  0AA1               	incf	___aldiv@sign,f
  3856  0163                     l372:
  3857  0163  1FF7               	btfss	___aldiv@dividend+3,7
  3858  0164  2966               	goto	u1161
  3859  0165  2967               	goto	u1160
  3860  0166                     u1161:
  3861  0166  2976               	goto	l1445
  3862  0167                     u1160:
  3863  0167                     l1441:
  3864  0167  09F4               	comf	___aldiv@dividend,f
  3865  0168  09F5               	comf	___aldiv@dividend+1,f
  3866  0169  09F6               	comf	___aldiv@dividend+2,f
  3867  016A  09F7               	comf	___aldiv@dividend+3,f
  3868  016B  0AF4               	incf	___aldiv@dividend,f
  3869  016C  1903               	skipnz
  3870  016D  0AF5               	incf	___aldiv@dividend+1,f
  3871  016E  1903               	skipnz
  3872  016F  0AF6               	incf	___aldiv@dividend+2,f
  3873  0170  1903               	skipnz
  3874  0171  0AF7               	incf	___aldiv@dividend+3,f
  3875  0172                     l1443:
  3876  0172  3001               	movlw	1
  3877  0173  00F8               	movwf	??___aldiv
  3878  0174  0878               	movf	??___aldiv,w
  3879  0175  06A1               	xorwf	___aldiv@sign,f
  3880  0176                     l1445:
  3881  0176  3000               	movlw	0
  3882  0177  00A5               	movwf	___aldiv@quotient+3
  3883  0178  3000               	movlw	0
  3884  0179  00A4               	movwf	___aldiv@quotient+2
  3885  017A  3000               	movlw	0
  3886  017B  00A3               	movwf	___aldiv@quotient+1
  3887  017C  3000               	movlw	0
  3888  017D  00A2               	movwf	___aldiv@quotient
  3889  017E                     l1447:
  3890  017E  0873               	movf	___aldiv@divisor+3,w
  3891  017F  0472               	iorwf	___aldiv@divisor+2,w
  3892  0180  0471               	iorwf	___aldiv@divisor+1,w
  3893  0181  0470               	iorwf	___aldiv@divisor,w
  3894  0182  1903               	skipnz
  3895  0183  2985               	goto	u1171
  3896  0184  2986               	goto	u1170
  3897  0185                     u1171:
  3898  0185  29C7               	goto	l1467
  3899  0186                     u1170:
  3900  0186                     l1449:
  3901  0186  01A0               	clrf	___aldiv@counter
  3902  0187  0AA0               	incf	___aldiv@counter,f
  3903  0188  2994               	goto	l1453
  3904  0189                     l1451:
  3905  0189  3001               	movlw	1
  3906  018A                     u1185:
  3907  018A  35F0               	lslf	___aldiv@divisor,f
  3908  018B  0DF1               	rlf	___aldiv@divisor+1,f
  3909  018C  0DF2               	rlf	___aldiv@divisor+2,f
  3910  018D  0DF3               	rlf	___aldiv@divisor+3,f
  3911  018E  0B89               	decfsz	9,f
  3912  018F  298A               	goto	u1185
  3913  0190  3001               	movlw	1
  3914  0191  00F8               	movwf	??___aldiv
  3915  0192  0878               	movf	??___aldiv,w
  3916  0193  07A0               	addwf	___aldiv@counter,f
  3917  0194                     l1453:
  3918  0194  1FF3               	btfss	___aldiv@divisor+3,7
  3919  0195  2997               	goto	u1191
  3920  0196  2998               	goto	u1190
  3921  0197                     u1191:
  3922  0197  2989               	goto	l1451
  3923  0198                     u1190:
  3924  0198                     l1455:
  3925  0198  3001               	movlw	1
  3926  0199                     u1205:
  3927  0199  35A2               	lslf	___aldiv@quotient,f
  3928  019A  0DA3               	rlf	___aldiv@quotient+1,f
  3929  019B  0DA4               	rlf	___aldiv@quotient+2,f
  3930  019C  0DA5               	rlf	___aldiv@quotient+3,f
  3931  019D  0B89               	decfsz	9,f
  3932  019E  2999               	goto	u1205
  3933  019F                     l1457:
  3934  019F  0873               	movf	___aldiv@divisor+3,w
  3935  01A0  0277               	subwf	___aldiv@dividend+3,w
  3936  01A1  1D03               	skipz
  3937  01A2  29AD               	goto	u1215
  3938  01A3  0872               	movf	___aldiv@divisor+2,w
  3939  01A4  0276               	subwf	___aldiv@dividend+2,w
  3940  01A5  1D03               	skipz
  3941  01A6  29AD               	goto	u1215
  3942  01A7  0871               	movf	___aldiv@divisor+1,w
  3943  01A8  0275               	subwf	___aldiv@dividend+1,w
  3944  01A9  1D03               	skipz
  3945  01AA  29AD               	goto	u1215
  3946  01AB  0870               	movf	___aldiv@divisor,w
  3947  01AC  0274               	subwf	___aldiv@dividend,w
  3948  01AD                     u1215:
  3949  01AD  1C03               	skipc
  3950  01AE  29B0               	goto	u1211
  3951  01AF  29B1               	goto	u1210
  3952  01B0                     u1211:
  3953  01B0  29BA               	goto	l1463
  3954  01B1                     u1210:
  3955  01B1                     l1459:
  3956  01B1  0870               	movf	___aldiv@divisor,w
  3957  01B2  02F4               	subwf	___aldiv@dividend,f
  3958  01B3  0871               	movf	___aldiv@divisor+1,w
  3959  01B4  3BF5               	subwfb	___aldiv@dividend+1,f
  3960  01B5  0872               	movf	___aldiv@divisor+2,w
  3961  01B6  3BF6               	subwfb	___aldiv@dividend+2,f
  3962  01B7  0873               	movf	___aldiv@divisor+3,w
  3963  01B8  3BF7               	subwfb	___aldiv@dividend+3,f
  3964  01B9                     l1461:
  3965  01B9  1422               	bsf	___aldiv@quotient,0
  3966  01BA                     l1463:
  3967  01BA  3001               	movlw	1
  3968  01BB                     u1225:
  3969  01BB  36F3               	lsrf	___aldiv@divisor+3,f
  3970  01BC  0CF2               	rrf	___aldiv@divisor+2,f
  3971  01BD  0CF1               	rrf	___aldiv@divisor+1,f
  3972  01BE  0CF0               	rrf	___aldiv@divisor,f
  3973  01BF  0B89               	decfsz	9,f
  3974  01C0  29BB               	goto	u1225
  3975  01C1                     l1465:
  3976  01C1  3001               	movlw	1
  3977  01C2  02A0               	subwf	___aldiv@counter,f
  3978  01C3  1D03               	btfss	3,2
  3979  01C4  29C6               	goto	u1231
  3980  01C5  29C7               	goto	u1230
  3981  01C6                     u1231:
  3982  01C6  2998               	goto	l1455
  3983  01C7                     u1230:
  3984  01C7                     l1467:
  3985  01C7  0821               	movf	___aldiv@sign,w
  3986  01C8  1903               	btfsc	3,2
  3987  01C9  29CB               	goto	u1241
  3988  01CA  29CC               	goto	u1240
  3989  01CB                     u1241:
  3990  01CB  29D7               	goto	l1471
  3991  01CC                     u1240:
  3992  01CC                     l1469:
  3993  01CC  09A2               	comf	___aldiv@quotient,f
  3994  01CD  09A3               	comf	___aldiv@quotient+1,f
  3995  01CE  09A4               	comf	___aldiv@quotient+2,f
  3996  01CF  09A5               	comf	___aldiv@quotient+3,f
  3997  01D0  0AA2               	incf	___aldiv@quotient,f
  3998  01D1  1903               	skipnz
  3999  01D2  0AA3               	incf	___aldiv@quotient+1,f
  4000  01D3  1903               	skipnz
  4001  01D4  0AA4               	incf	___aldiv@quotient+2,f
  4002  01D5  1903               	skipnz
  4003  01D6  0AA5               	incf	___aldiv@quotient+3,f
  4004  01D7                     l1471:
  4005  01D7  0825               	movf	___aldiv@quotient+3,w
  4006  01D8  00F3               	movwf	?___aldiv+3
  4007  01D9  0824               	movf	___aldiv@quotient+2,w
  4008  01DA  00F2               	movwf	?___aldiv+2
  4009  01DB  0823               	movf	___aldiv@quotient+1,w
  4010  01DC  00F1               	movwf	?___aldiv+1
  4011  01DD  0822               	movf	___aldiv@quotient,w
  4012  01DE  00F0               	movwf	?___aldiv
  4013  01DF                     l382:
  4014  01DF  0008               	return
  4015  01E0                     __end_of___aldiv:
  4016                           
  4017                           	psect	text8
  4018  0FBA                     __ptext8:	
  4019 ;; *************** function _Segments_Set *****************
  4020 ;; Defined at:
  4021 ;;		line 142 in file "main.c"
  4022 ;; Parameters:    Size  Location     Type
  4023 ;;  fnc_number      2   14[BANK0 ] int 
  4024 ;;  fnc_digit       2   16[BANK0 ] int 
  4025 ;; Auto vars:     Size  Location     Type
  4026 ;;		None
  4027 ;; Return value:  Size  Location     Type
  4028 ;;                  1    wreg      void 
  4029 ;; Registers used:
  4030 ;;		wreg, fsr0l, fsr0h, status,2, status,0, pclath
  4031 ;; Tracked objects:
  4032 ;;		On entry : 0/0
  4033 ;;		On exit  : 0/0
  4034 ;;		Unchanged: 0/0
  4035 ;; Data sizes:     COMMON   BANK0   BANK1   BANK2   BANK3   BANK4   BANK5   BANK6   BANK7   BANK8   BANK9  BANK10  BANK1
      +1  BANK12
  4036 ;;      Params:         0       4       0       0       0       0       0       0       0       0       0       0       
      +0       0
  4037 ;;      Locals:         0       0       0       0       0       0       0       0       0       0       0       0       
      +0       0
  4038 ;;      Temps:          0       0       0       0       0       0       0       0       0       0       0       0       
      +0       0
  4039 ;;      Totals:         0       4       0       0       0       0       0       0       0       0       0       0       
      +0       0
  4040 ;;Total ram usage:        4 bytes
  4041 ;; Hardware stack levels used: 1
  4042 ;; This function calls:
  4043 ;;		Nothing
  4044 ;; This function is called by:
  4045 ;;		_main
  4046 ;; This function uses a non-reentrant model
  4047 ;;
  4048                           
  4049  0FBA                     _Segments_Set:	
  4050                           ;psect for function _Segments_Set
  4051                           
  4052  0FBA                     l1427:	
  4053                           ;incstack = 0
  4054                           ; Regs used in _Segments_Set: [wreg-fsr0h+status,2+status,0+pclath]
  4055                           
  4056                           
  4057                           ;main.c: 143:     PORTC = 0b00000000;
  4058  0FBA  0020               	movlb	0	; select bank0
  4059  0FBB  018E               	clrf	14	;volatile
  4060  0FBC                     l1429:
  4061                           
  4062                           ;main.c: 144:     PORTB = digit[fnc_digit];
  4063  0FBC  0831               	movf	Segments_Set@fnc_digit+1,w
  4064  0FBD  0085               	movwf	5
  4065  0FBE  0830               	movf	Segments_Set@fnc_digit,w
  4066  0FBF  0084               	movwf	4
  4067  0FC0  300A               	movlw	low (_digit| (0+32768))
  4068  0FC1  0784               	addwf	4,f
  4069  0FC2  3090               	movlw	high (_digit| (0+32768))
  4070  0FC3  3D85               	addwfc	5,f
  4071  0FC4  0800               	movf	0,w	;code access
  4072  0FC5  008D               	movwf	13	;volatile
  4073  0FC6                     l1431:
  4074                           
  4075                           ;main.c: 145:     PORTC = seg[fnc_number];
  4076  0FC6  082F               	movf	Segments_Set@fnc_number+1,w
  4077  0FC7  0085               	movwf	5
  4078  0FC8  082E               	movf	Segments_Set@fnc_number,w
  4079  0FC9  0084               	movwf	4
  4080  0FCA  3000               	movlw	low (_seg| (0+32768))
  4081  0FCB  0784               	addwf	4,f
  4082  0FCC  3090               	movlw	high (_seg| (0+32768))
  4083  0FCD  3D85               	addwfc	5,f
  4084  0FCE  0800               	movf	0,w	;code access
  4085  0FCF  008E               	movwf	14	;volatile
  4086  0FD0                     l1433:
  4087                           
  4088                           ;main.c: 146:     if(fnc_digit == 2){
  4089  0FD0  3002               	movlw	2
  4090  0FD1  0630               	xorwf	Segments_Set@fnc_digit,w
  4091  0FD2  0431               	iorwf	Segments_Set@fnc_digit+1,w
  4092  0FD3  1D03               	btfss	3,2
  4093  0FD4  2FD6               	goto	u1141
  4094  0FD5  2FD7               	goto	u1140
  4095  0FD6                     u1141:
  4096  0FD6  2FDA               	goto	l155
  4097  0FD7                     u1140:
  4098  0FD7                     l152:	
  4099                           ;main.c: 147:         do { LATCbits.LATC7 = 1; } while(0);
  4100                           
  4101  0FD7  0022               	movlb	2	; select bank2
  4102  0FD8  178E               	bsf	14,7	;volatile
  4103  0FD9  2FDC               	goto	l157
  4104  0FDA                     l155:	
  4105                           ;main.c: 149:         do { LATCbits.LATC7 = 0; } while(0);
  4106                           
  4107  0FDA  0022               	movlb	2	; select bank2
  4108  0FDB  138E               	bcf	14,7	;volatile
  4109  0FDC                     l157:
  4110  0FDC  0008               	return
  4111  0FDD                     __end_of_Segments_Set:
  4112                           
  4113                           	psect	text9
  4114  0026                     __ptext9:	
  4115 ;; *************** function _Segments_Init *****************
  4116 ;; Defined at:
  4117 ;;		line 131 in file "main.c"
  4118 ;; Parameters:    Size  Location     Type
  4119 ;;		None
  4120 ;; Auto vars:     Size  Location     Type
  4121 ;;  i               2    1[COMMON] int 
  4122 ;;  z               2    3[COMMON] int 
  4123 ;; Return value:  Size  Location     Type
  4124 ;;                  1    wreg      void 
  4125 ;; Registers used:
  4126 ;;		wreg, fsr0l, fsr0h, status,2, status,0, pclath
  4127 ;; Tracked objects:
  4128 ;;		On entry : 0/0
  4129 ;;		On exit  : 0/0
  4130 ;;		Unchanged: 0/0
  4131 ;; Data sizes:     COMMON   BANK0   BANK1   BANK2   BANK3   BANK4   BANK5   BANK6   BANK7   BANK8   BANK9  BANK10  BANK1
      +1  BANK12
  4132 ;;      Params:         0       0       0       0       0       0       0       0       0       0       0       0       
      +0       0
  4133 ;;      Locals:         4       0       0       0       0       0       0       0       0       0       0       0       
      +0       0
  4134 ;;      Temps:          1       0       0       0       0       0       0       0       0       0       0       0       
      +0       0
  4135 ;;      Totals:         5       0       0       0       0       0       0       0       0       0       0       0       
      +0       0
  4136 ;;Total ram usage:        5 bytes
  4137 ;; Hardware stack levels used: 1
  4138 ;; This function calls:
  4139 ;;		Nothing
  4140 ;; This function is called by:
  4141 ;;		_main
  4142 ;; This function uses a non-reentrant model
  4143 ;;
  4144                           
  4145  0026                     _Segments_Init:	
  4146                           ;psect for function _Segments_Init
  4147                           
  4148  0026                     l1399:	
  4149                           ;incstack = 0
  4150                           ; Regs used in _Segments_Init: [wreg-fsr0h+status,2+status,0+pclath]
  4151                           
  4152                           
  4153                           ;main.c: 132:     for(int z = 3; z >= 0; z--){
  4154  0026  3003               	movlw	3
  4155  0027  00F3               	movwf	Segments_Init@z
  4156  0028  3000               	movlw	0
  4157  0029  00F4               	movwf	Segments_Init@z+1
  4158  002A                     l1405:
  4159                           
  4160                           ;main.c: 133:         PORTB = digit[z];
  4161  002A  0874               	movf	Segments_Init@z+1,w
  4162  002B  0085               	movwf	5
  4163  002C  0873               	movf	Segments_Init@z,w
  4164  002D  0084               	movwf	4
  4165  002E  300A               	movlw	low (_digit| (0+32768))
  4166  002F  0784               	addwf	4,f
  4167  0030  3090               	movlw	high (_digit| (0+32768))
  4168  0031  3D85               	addwfc	5,f
  4169  0032  0800               	movf	0,w	;code access
  4170  0033  0020               	movlb	0	; select bank0
  4171  0034  008D               	movwf	13	;volatile
  4172  0035                     l1407:
  4173                           
  4174                           ;main.c: 134:         PORTC = 0b00000001;
  4175  0035  3001               	movlw	1
  4176  0036  008E               	movwf	14	;volatile
  4177  0037                     l1409:
  4178                           
  4179                           ;main.c: 135:         for(int i = 1; i <= 7; i++){
  4180  0037  3001               	movlw	1
  4181  0038  00F1               	movwf	Segments_Init@i
  4182  0039  3000               	movlw	0
  4183  003A  00F2               	movwf	Segments_Init@i+1
  4184  003B                     l1415:
  4185                           
  4186                           ;main.c: 136:             _delay((unsigned long)((10)*(16000000/4000.0)));
  4187  003B  3034               	movlw	52
  4188  003C  00F0               	movwf	??_Segments_Init
  4189  003D  30F2               	movlw	242
  4190  003E                     u2197:
  4191  003E  0B89               	decfsz	9,f
  4192  003F  283E               	goto	u2197
  4193  0040  0BF0               	decfsz	??_Segments_Init,f
  4194  0041  283E               	goto	u2197
  4195  0042                     l1417:
  4196                           
  4197                           ;main.c: 137:             PORTC = PORTC << 1;
  4198  0042  0020               	movlb	0	; select bank0
  4199  0043  350E               	lslf	14,w	;volatile
  4200  0044  008E               	movwf	14	;volatile
  4201  0045                     l1419:
  4202                           
  4203                           ;main.c: 138:         }
  4204  0045  3001               	movlw	1
  4205  0046  07F1               	addwf	Segments_Init@i,f
  4206  0047  3000               	movlw	0
  4207  0048  3DF2               	addwfc	Segments_Init@i+1,f
  4208  0049                     l1421:
  4209  0049  0872               	movf	Segments_Init@i+1,w
  4210  004A  3A80               	xorlw	128
  4211  004B  00F0               	movwf	??_Segments_Init
  4212  004C  3080               	movlw	128
  4213  004D  0270               	subwf	??_Segments_Init,w
  4214  004E  1D03               	skipz
  4215  004F  2852               	goto	u1125
  4216  0050  3008               	movlw	8
  4217  0051  0271               	subwf	Segments_Init@i,w
  4218  0052                     u1125:
  4219  0052  1C03               	skipc
  4220  0053  2855               	goto	u1121
  4221  0054  2856               	goto	u1120
  4222  0055                     u1121:
  4223  0055  283B               	goto	l1415
  4224  0056                     u1120:
  4225  0056                     l1423:
  4226                           
  4227                           ;main.c: 139:     }
  4228  0056  30FF               	movlw	255
  4229  0057  07F3               	addwf	Segments_Init@z,f
  4230  0058  30FF               	movlw	255
  4231  0059  3DF4               	addwfc	Segments_Init@z+1,f
  4232  005A                     l1425:
  4233  005A  1FF4               	btfss	Segments_Init@z+1,7
  4234  005B  285D               	goto	u1131
  4235  005C  285E               	goto	u1130
  4236  005D                     u1131:
  4237  005D  282A               	goto	l1405
  4238  005E                     u1130:
  4239  005E                     l148:
  4240  005E  0008               	return
  4241  005F                     __end_of_Segments_Init:
  4242                           
  4243                           	psect	text10
  4244  0F93                     __ptext10:	
  4245 ;; *************** function _SYSTEM_Initialize *****************
  4246 ;; Defined at:
  4247 ;;		line 50 in file "mcc_generated_files/mcc.c"
  4248 ;; Parameters:    Size  Location     Type
  4249 ;;		None
  4250 ;; Auto vars:     Size  Location     Type
  4251 ;;		None
  4252 ;; Return value:  Size  Location     Type
  4253 ;;                  1    wreg      void 
  4254 ;; Registers used:
  4255 ;;		wreg, status,2, status,0, pclath, cstack
  4256 ;; Tracked objects:
  4257 ;;		On entry : 0/0
  4258 ;;		On exit  : 0/0
  4259 ;;		Unchanged: 0/0
  4260 ;; Data sizes:     COMMON   BANK0   BANK1   BANK2   BANK3   BANK4   BANK5   BANK6   BANK7   BANK8   BANK9  BANK10  BANK1
      +1  BANK12
  4261 ;;      Params:         0       0       0       0       0       0       0       0       0       0       0       0       
      +0       0
  4262 ;;      Locals:         0       0       0       0       0       0       0       0       0       0       0       0       
      +0       0
  4263 ;;      Temps:          0       0       0       0       0       0       0       0       0       0       0       0       
      +0       0
  4264 ;;      Totals:         0       0       0       0       0       0       0       0       0       0       0       0       
      +0       0
  4265 ;;Total ram usage:        0 bytes
  4266 ;; Hardware stack levels used: 1
  4267 ;; Hardware stack levels required when called: 1
  4268 ;; This function calls:
  4269 ;;		_ADC_Initialize
  4270 ;;		_OSCILLATOR_Initialize
  4271 ;;		_PIN_MANAGER_Initialize
  4272 ;;		_WDT_Initialize
  4273 ;; This function is called by:
  4274 ;;		_main
  4275 ;; This function uses a non-reentrant model
  4276 ;;
  4277                           
  4278  0F93                     _SYSTEM_Initialize:	
  4279                           ;psect for function _SYSTEM_Initialize
  4280                           
  4281  0F93                     l1385:	
  4282                           ;incstack = 0
  4283                           ; Regs used in _SYSTEM_Initialize: [wreg+status,2+status,0+pclath+cstack]
  4284                           
  4285                           
  4286                           ;mcc_generated_files/mcc.c: 53:     PIN_MANAGER_Initialize();
  4287  0F93  318F  27A0  318F   	fcall	_PIN_MANAGER_Initialize
  4288                           
  4289                           ;mcc_generated_files/mcc.c: 54:     OSCILLATOR_Initialize();
  4290  0F96  3180  2004  318F   	fcall	_OSCILLATOR_Initialize
  4291                           
  4292                           ;mcc_generated_files/mcc.c: 55:     WDT_Initialize();
  4293  0F99  318F  2781  318F   	fcall	_WDT_Initialize
  4294                           
  4295                           ;mcc_generated_files/mcc.c: 56:     ADC_Initialize();
  4296  0F9C  318F  278B  318F   	fcall	_ADC_Initialize
  4297  0F9F                     l53:
  4298  0F9F  0008               	return
  4299  0FA0                     __end_of_SYSTEM_Initialize:
  4300                           
  4301                           	psect	text11
  4302  0F81                     __ptext11:	
  4303 ;; *************** function _WDT_Initialize *****************
  4304 ;; Defined at:
  4305 ;;		line 69 in file "mcc_generated_files/mcc.c"
  4306 ;; Parameters:    Size  Location     Type
  4307 ;;		None
  4308 ;; Auto vars:     Size  Location     Type
  4309 ;;		None
  4310 ;; Return value:  Size  Location     Type
  4311 ;;                  1    wreg      void 
  4312 ;; Registers used:
  4313 ;;		wreg
  4314 ;; Tracked objects:
  4315 ;;		On entry : 0/0
  4316 ;;		On exit  : 0/0
  4317 ;;		Unchanged: 0/0
  4318 ;; Data sizes:     COMMON   BANK0   BANK1   BANK2   BANK3   BANK4   BANK5   BANK6   BANK7   BANK8   BANK9  BANK10  BANK1
      +1  BANK12
  4319 ;;      Params:         0       0       0       0       0       0       0       0       0       0       0       0       
      +0       0
  4320 ;;      Locals:         0       0       0       0       0       0       0       0       0       0       0       0       
      +0       0
  4321 ;;      Temps:          0       0       0       0       0       0       0       0       0       0       0       0       
      +0       0
  4322 ;;      Totals:         0       0       0       0       0       0       0       0       0       0       0       0       
      +0       0
  4323 ;;Total ram usage:        0 bytes
  4324 ;; Hardware stack levels used: 1
  4325 ;; This function calls:
  4326 ;;		Nothing
  4327 ;; This function is called by:
  4328 ;;		_SYSTEM_Initialize
  4329 ;; This function uses a non-reentrant model
  4330 ;;
  4331                           
  4332  0F81                     _WDT_Initialize:	
  4333                           ;psect for function _WDT_Initialize
  4334                           
  4335  0F81                     l1363:	
  4336                           ;incstack = 0
  4337                           ; Regs used in _WDT_Initialize: [wreg]
  4338                           
  4339                           
  4340                           ;mcc_generated_files/mcc.c: 72:     WDTCON = 0x16;
  4341  0F81  3016               	movlw	22
  4342  0F82  0021               	movlb	1	; select bank1
  4343  0F83  0097               	movwf	23	;volatile
  4344  0F84                     l59:
  4345  0F84  0008               	return
  4346  0F85                     __end_of_WDT_Initialize:
  4347                           
  4348                           	psect	text12
  4349  0FA0                     __ptext12:	
  4350 ;; *************** function _PIN_MANAGER_Initialize *****************
  4351 ;; Defined at:
  4352 ;;		line 55 in file "mcc_generated_files/pin_manager.c"
  4353 ;; Parameters:    Size  Location     Type
  4354 ;;		None
  4355 ;; Auto vars:     Size  Location     Type
  4356 ;;		None
  4357 ;; Return value:  Size  Location     Type
  4358 ;;                  1    wreg      void 
  4359 ;; Registers used:
  4360 ;;		wreg, status,2
  4361 ;; Tracked objects:
  4362 ;;		On entry : 0/0
  4363 ;;		On exit  : 0/0
  4364 ;;		Unchanged: 0/0
  4365 ;; Data sizes:     COMMON   BANK0   BANK1   BANK2   BANK3   BANK4   BANK5   BANK6   BANK7   BANK8   BANK9  BANK10  BANK1
      +1  BANK12
  4366 ;;      Params:         0       0       0       0       0       0       0       0       0       0       0       0       
      +0       0
  4367 ;;      Locals:         0       0       0       0       0       0       0       0       0       0       0       0       
      +0       0
  4368 ;;      Temps:          0       0       0       0       0       0       0       0       0       0       0       0       
      +0       0
  4369 ;;      Totals:         0       0       0       0       0       0       0       0       0       0       0       0       
      +0       0
  4370 ;;Total ram usage:        0 bytes
  4371 ;; Hardware stack levels used: 1
  4372 ;; This function calls:
  4373 ;;		Nothing
  4374 ;; This function is called by:
  4375 ;;		_SYSTEM_Initialize
  4376 ;; This function uses a non-reentrant model
  4377 ;;
  4378                           
  4379  0FA0                     _PIN_MANAGER_Initialize:	
  4380                           ;psect for function _PIN_MANAGER_Initialize
  4381                           
  4382  0FA0                     l1339:	
  4383                           ;incstack = 0
  4384                           ; Regs used in _PIN_MANAGER_Initialize: [wreg+status,2]
  4385                           
  4386                           
  4387                           ;mcc_generated_files/pin_manager.c: 60:     LATE = 0x00;
  4388  0FA0  0022               	movlb	2	; select bank2
  4389  0FA1  0190               	clrf	16	;volatile
  4390                           
  4391                           ;mcc_generated_files/pin_manager.c: 61:     LATA = 0x00;
  4392  0FA2  018C               	clrf	12	;volatile
  4393                           
  4394                           ;mcc_generated_files/pin_manager.c: 62:     LATB = 0x00;
  4395  0FA3  018D               	clrf	13	;volatile
  4396                           
  4397                           ;mcc_generated_files/pin_manager.c: 63:     LATC = 0x00;
  4398  0FA4  018E               	clrf	14	;volatile
  4399  0FA5                     l1341:
  4400                           
  4401                           ;mcc_generated_files/pin_manager.c: 68:     TRISE = 0x08;
  4402  0FA5  3008               	movlw	8
  4403  0FA6  0021               	movlb	1	; select bank1
  4404  0FA7  0090               	movwf	16	;volatile
  4405  0FA8                     l1343:
  4406                           
  4407                           ;mcc_generated_files/pin_manager.c: 69:     TRISA = 0xFF;
  4408  0FA8  30FF               	movlw	255
  4409  0FA9  008C               	movwf	12	;volatile
  4410  0FAA                     l1345:
  4411                           
  4412                           ;mcc_generated_files/pin_manager.c: 70:     TRISB = 0xF0;
  4413  0FAA  30F0               	movlw	240
  4414  0FAB  008D               	movwf	13	;volatile
  4415  0FAC                     l1347:
  4416                           
  4417                           ;mcc_generated_files/pin_manager.c: 71:     TRISC = 0x00;
  4418  0FAC  018E               	clrf	14	;volatile
  4419                           
  4420                           ;mcc_generated_files/pin_manager.c: 76:     ANSELB = 0x3F;
  4421  0FAD  303F               	movlw	63
  4422  0FAE  0023               	movlb	3	; select bank3
  4423  0FAF  008D               	movwf	13	;volatile
  4424                           
  4425                           ;mcc_generated_files/pin_manager.c: 77:     ANSELA = 0x3F;
  4426  0FB0  303F               	movlw	63
  4427  0FB1  008C               	movwf	12	;volatile
  4428  0FB2                     l1349:
  4429                           
  4430                           ;mcc_generated_files/pin_manager.c: 82:     WPUE = 0x00;
  4431  0FB2  0024               	movlb	4	; select bank4
  4432  0FB3  0190               	clrf	16	;volatile
  4433  0FB4                     l1351:
  4434                           
  4435                           ;mcc_generated_files/pin_manager.c: 83:     WPUB = 0x00;
  4436  0FB4  018D               	clrf	13	;volatile
  4437  0FB5                     l1353:
  4438                           
  4439                           ;mcc_generated_files/pin_manager.c: 84:     OPTION_REGbits.nWPUEN = 1;
  4440  0FB5  0021               	movlb	1	; select bank1
  4441  0FB6  1795               	bsf	21,7	;volatile
  4442  0FB7                     l1355:
  4443                           
  4444                           ;mcc_generated_files/pin_manager.c: 90:     APFCON = 0x00;
  4445  0FB7  0022               	movlb	2	; select bank2
  4446  0FB8  019D               	clrf	29	;volatile
  4447  0FB9                     l31:
  4448  0FB9  0008               	return
  4449  0FBA                     __end_of_PIN_MANAGER_Initialize:
  4450                           
  4451                           	psect	text13
  4452  0004                     __ptext13:	
  4453 ;; *************** function _OSCILLATOR_Initialize *****************
  4454 ;; Defined at:
  4455 ;;		line 59 in file "mcc_generated_files/mcc.c"
  4456 ;; Parameters:    Size  Location     Type
  4457 ;;		None
  4458 ;; Auto vars:     Size  Location     Type
  4459 ;;		None
  4460 ;; Return value:  Size  Location     Type
  4461 ;;                  1    wreg      void 
  4462 ;; Registers used:
  4463 ;;		wreg, status,2
  4464 ;; Tracked objects:
  4465 ;;		On entry : 0/0
  4466 ;;		On exit  : 0/0
  4467 ;;		Unchanged: 0/0
  4468 ;; Data sizes:     COMMON   BANK0   BANK1   BANK2   BANK3   BANK4   BANK5   BANK6   BANK7   BANK8   BANK9  BANK10  BANK1
      +1  BANK12
  4469 ;;      Params:         0       0       0       0       0       0       0       0       0       0       0       0       
      +0       0
  4470 ;;      Locals:         0       0       0       0       0       0       0       0       0       0       0       0       
      +0       0
  4471 ;;      Temps:          0       0       0       0       0       0       0       0       0       0       0       0       
      +0       0
  4472 ;;      Totals:         0       0       0       0       0       0       0       0       0       0       0       0       
      +0       0
  4473 ;;Total ram usage:        0 bytes
  4474 ;; Hardware stack levels used: 1
  4475 ;; This function calls:
  4476 ;;		Nothing
  4477 ;; This function is called by:
  4478 ;;		_SYSTEM_Initialize
  4479 ;; This function uses a non-reentrant model
  4480 ;;
  4481                           
  4482  0004                     _OSCILLATOR_Initialize:	
  4483                           ;psect for function _OSCILLATOR_Initialize
  4484                           
  4485  0004                     l1357:	
  4486                           ;incstack = 0
  4487                           ; Regs used in _OSCILLATOR_Initialize: [wreg+status,2]
  4488                           
  4489                           
  4490                           ;mcc_generated_files/mcc.c: 62:     OSCCON = 0x7A;
  4491  0004  307A               	movlw	122
  4492  0005  0021               	movlb	1	; select bank1
  4493  0006  0099               	movwf	25	;volatile
  4494  0007                     l1359:
  4495                           
  4496                           ;mcc_generated_files/mcc.c: 64:     OSCTUNE = 0x00;
  4497  0007  0198               	clrf	24	;volatile
  4498  0008                     l1361:
  4499                           
  4500                           ;mcc_generated_files/mcc.c: 66:     BORCON = 0x00;
  4501  0008  0022               	movlb	2	; select bank2
  4502  0009  0196               	clrf	22	;volatile
  4503  000A                     l56:
  4504  000A  0008               	return
  4505  000B                     __end_of_OSCILLATOR_Initialize:
  4506                           
  4507                           	psect	text14
  4508  0F8B                     __ptext14:	
  4509 ;; *************** function _ADC_Initialize *****************
  4510 ;; Defined at:
  4511 ;;		line 67 in file "mcc_generated_files/adc.c"
  4512 ;; Parameters:    Size  Location     Type
  4513 ;;		None
  4514 ;; Auto vars:     Size  Location     Type
  4515 ;;		None
  4516 ;; Return value:  Size  Location     Type
  4517 ;;                  1    wreg      void 
  4518 ;; Registers used:
  4519 ;;		wreg, status,2
  4520 ;; Tracked objects:
  4521 ;;		On entry : 0/0
  4522 ;;		On exit  : 0/0
  4523 ;;		Unchanged: 0/0
  4524 ;; Data sizes:     COMMON   BANK0   BANK1   BANK2   BANK3   BANK4   BANK5   BANK6   BANK7   BANK8   BANK9  BANK10  BANK1
      +1  BANK12
  4525 ;;      Params:         0       0       0       0       0       0       0       0       0       0       0       0       
      +0       0
  4526 ;;      Locals:         0       0       0       0       0       0       0       0       0       0       0       0       
      +0       0
  4527 ;;      Temps:          0       0       0       0       0       0       0       0       0       0       0       0       
      +0       0
  4528 ;;      Totals:         0       0       0       0       0       0       0       0       0       0       0       0       
      +0       0
  4529 ;;Total ram usage:        0 bytes
  4530 ;; Hardware stack levels used: 1
  4531 ;; This function calls:
  4532 ;;		Nothing
  4533 ;; This function is called by:
  4534 ;;		_SYSTEM_Initialize
  4535 ;; This function uses a non-reentrant model
  4536 ;;
  4537                           
  4538  0F8B                     _ADC_Initialize:	
  4539                           ;psect for function _ADC_Initialize
  4540                           
  4541  0F8B                     l1365:	
  4542                           ;incstack = 0
  4543                           ; Regs used in _ADC_Initialize: [wreg+status,2]
  4544                           
  4545                           
  4546                           ;mcc_generated_files/adc.c: 72:     ADCON1 = 0xD0;
  4547  0F8B  30D0               	movlw	208
  4548  0F8C  0021               	movlb	1	; select bank1
  4549  0F8D  009E               	movwf	30	;volatile
  4550  0F8E                     l1367:
  4551                           
  4552                           ;mcc_generated_files/adc.c: 75:     ADRESL = 0x00;
  4553  0F8E  019B               	clrf	27	;volatile
  4554  0F8F                     l1369:
  4555                           
  4556                           ;mcc_generated_files/adc.c: 78:     ADRESH = 0x00;
  4557  0F8F  019C               	clrf	28	;volatile
  4558                           
  4559                           ;mcc_generated_files/adc.c: 81:     ADCON0 = 0x01;
  4560  0F90  3001               	movlw	1
  4561  0F91  009D               	movwf	29	;volatile
  4562  0F92                     l76:
  4563  0F92  0008               	return
  4564  0F93                     __end_of_ADC_Initialize:
  4565                           
  4566                           	psect	text15
  4567  000B                     __ptext15:	
  4568 ;; *************** function _ADC_GetConversion *****************
  4569 ;; Defined at:
  4570 ;;		line 112 in file "mcc_generated_files/adc.c"
  4571 ;; Parameters:    Size  Location     Type
  4572 ;;  channel         1    wreg     enum E2714
  4573 ;; Auto vars:     Size  Location     Type
  4574 ;;  channel         1    3[COMMON] enum E2714
  4575 ;; Return value:  Size  Location     Type
  4576 ;;                  2    0[COMMON] unsigned short 
  4577 ;; Registers used:
  4578 ;;		wreg, status,2, status,0
  4579 ;; Tracked objects:
  4580 ;;		On entry : 0/0
  4581 ;;		On exit  : 0/0
  4582 ;;		Unchanged: 0/0
  4583 ;; Data sizes:     COMMON   BANK0   BANK1   BANK2   BANK3   BANK4   BANK5   BANK6   BANK7   BANK8   BANK9  BANK10  BANK1
      +1  BANK12
  4584 ;;      Params:         2       0       0       0       0       0       0       0       0       0       0       0       
      +0       0
  4585 ;;      Locals:         1       0       0       0       0       0       0       0       0       0       0       0       
      +0       0
  4586 ;;      Temps:          1       0       0       0       0       0       0       0       0       0       0       0       
      +0       0
  4587 ;;      Totals:         4       0       0       0       0       0       0       0       0       0       0       0       
      +0       0
  4588 ;;Total ram usage:        4 bytes
  4589 ;; Hardware stack levels used: 1
  4590 ;; This function calls:
  4591 ;;		Nothing
  4592 ;; This function is called by:
  4593 ;;		_main
  4594 ;; This function uses a non-reentrant model
  4595 ;;
  4596                           
  4597  000B                     _ADC_GetConversion:	
  4598                           ;psect for function _ADC_GetConversion
  4599                           
  4600                           
  4601                           ;incstack = 0
  4602                           ; Regs used in _ADC_GetConversion: [wreg+status,2+status,0]
  4603                           ;ADC_GetConversion@channel stored from wreg
  4604  000B  00F3               	movwf	ADC_GetConversion@channel
  4605  000C                     l1387:
  4606                           
  4607                           ;mcc_generated_files/adc.c: 112: adc_result_t ADC_GetConversion(adc_channel_t channel);m
      +                          cc_generated_files/adc.c: 113: {;mcc_generated_files/adc.c: 115:     ADCON0bits.CHS = ch
      +                          annel;
  4608  000C  0873               	movf	ADC_GetConversion@channel,w
  4609  000D  00F2               	movwf	??_ADC_GetConversion
  4610  000E  0DF2               	rlf	??_ADC_GetConversion,f
  4611  000F  0DF2               	rlf	??_ADC_GetConversion,f
  4612  0010  0021               	movlb	1	; select bank1
  4613  0011  081D               	movf	29,w	;volatile
  4614  0012  0672               	xorwf	??_ADC_GetConversion,w
  4615  0013  3983               	andlw	-125
  4616  0014  0672               	xorwf	??_ADC_GetConversion,w
  4617  0015  009D               	movwf	29	;volatile
  4618  0016                     l1389:
  4619                           
  4620                           ;mcc_generated_files/adc.c: 118:     ADCON0bits.ADON = 1;
  4621  0016  141D               	bsf	29,0	;volatile
  4622  0017                     l1391:
  4623                           
  4624                           ;mcc_generated_files/adc.c: 121:     _delay((unsigned long)((5)*(16000000/4000000.0)));
  4625  0017  3006               	movlw	6
  4626  0018                     u2207:
  4627  0018  0B89               	decfsz	9,f
  4628  0019  2818               	goto	u2207
  4629  001A  3200               	nop2
  4630  001B                     l1393:
  4631                           
  4632                           ;mcc_generated_files/adc.c: 124:     ADCON0bits.GO_nDONE = 1;
  4633  001B  0021               	movlb	1	; select bank1
  4634  001C  149D               	bsf	29,1	;volatile
  4635  001D                     l91:	
  4636                           ;mcc_generated_files/adc.c: 128:     {;mcc_generated_files/adc.c: 129:     }
  4637                           
  4638                           
  4639                           ;mcc_generated_files/adc.c: 127:     while (ADCON0bits.GO_nDONE)
  4640  001D  189D               	btfsc	29,1	;volatile
  4641  001E  2820               	goto	u1111
  4642  001F  2821               	goto	u1110
  4643  0020                     u1111:
  4644  0020  281D               	goto	l91
  4645  0021                     u1110:
  4646  0021                     l1395:
  4647                           
  4648                           ;mcc_generated_files/adc.c: 132:     return ((adc_result_t)((ADRESH << 8) + ADRESL));
  4649  0021  081C               	movf	28,w	;volatile
  4650  0022  00F1               	movwf	?_ADC_GetConversion+1
  4651  0023  081B               	movf	27,w	;volatile
  4652  0024  00F0               	movwf	?_ADC_GetConversion
  4653  0025                     l94:
  4654  0025  0008               	return
  4655  0026                     __end_of_ADC_GetConversion:
  4656  007E                     btemp	set	126	;btemp
  4657  007E                     wtemp0	set	126
  4658                           
  4659                           	psect	config
  4660                           
  4661                           ;Config register CONFIG1 @ 0x8007
  4662                           ;	Oscillator Selection
  4663                           ;	FOSC = INTOSC, INTOSC oscillator: I/O function on CLKIN pin
  4664                           ;	Watchdog Timer Enable
  4665                           ;	WDTE = OFF, WDT disabled
  4666                           ;	Power-up Timer Enable
  4667                           ;	PWRTE = OFF, PWRT disabled
  4668                           ;	MCLR Pin Function Select
  4669                           ;	MCLRE = ON, MCLR/VPP pin function is MCLR
  4670                           ;	Flash Program Memory Code Protection
  4671                           ;	CP = OFF, Program memory code protection is disabled
  4672                           ;	Data Memory Code Protection
  4673                           ;	CPD = OFF, Data memory code protection is disabled
  4674                           ;	Brown-out Reset Enable
  4675                           ;	BOREN = ON, Brown-out Reset enabled
  4676                           ;	Clock Out Enable
  4677                           ;	CLKOUTEN = OFF, CLKOUT function is disabled. I/O or oscillator function on the CLKOUT 
      +                          pin
  4678                           ;	Internal/External Switchover
  4679                           ;	IESO = ON, Internal/External Switchover mode is enabled
  4680                           ;	Fail-Safe Clock Monitor Enable
  4681                           ;	FCMEN = ON, Fail-Safe Clock Monitor is enabled
  4682  8007                     	org	32775
  4683  8007  3FE4               	dw	16356
  4684                           
  4685                           ;Config register CONFIG2 @ 0x8008
  4686                           ;	Flash Memory Self-Write Protection
  4687                           ;	WRT = OFF, Write protection off
  4688                           ;	Voltage Regulator Capacitor Enable
  4689                           ;	VCAPEN = OFF, All VCAP pin functionality is disabled
  4690                           ;	PLL Enable
  4691                           ;	PLLEN = OFF, 4x PLL disabled
  4692                           ;	Stack Overflow/Underflow Reset Enable
  4693                           ;	STVREN = ON, Stack Overflow or Underflow will cause a Reset
  4694                           ;	Brown-out Reset Voltage Selection
  4695                           ;	BORV = LO, Brown-out Reset Voltage (Vbor), low trip point selected.
  4696                           ;	Low-Voltage Programming Enable
  4697                           ;	LVP = OFF, High-voltage on MCLR/VPP must be used for programming
  4698  8008                     	org	32776
  4699  8008  1EFF               	dw	7935

Data Sizes:
    Strings     0
    Constant    14
    Data        2
    BSS         16
    Persistent  32
    Stack       0

Auto Spaces:
    Space          Size  Autos    Used
    COMMON           14     14      14
    BANK0            80     57      75
    BANK1            80      0       0
    BANK2            80      0       0
    BANK3            80      0       0
    BANK4            80      0       0
    BANK5            80      0       0
    BANK6            80      0       0
    BANK7            80      0       0
    BANK8            80      0       0
    BANK9            80      0       0
    BANK10           80      0       0
    BANK11           80      0       0
    BANK12           48      0       0

Pointer List with Targets:

    ADC_InterruptHandler	PTR FTN()void  size(2) Largest target is 1
		 -> Absolute function(), 


Critical Paths under _main in COMMON

    _main->___xxtofl
    ___flmul->___xxtofl
    ___fldiv->___xxtofl
    ___almod->___aldiv
    _Segments_Set->___almod

Critical Paths under _main in BANK0

    _main->___fldiv
    ___fltol->___flmul
    ___fldiv->___flmul
    ___almod->___aldiv
    _Segments_Set->___almod

Critical Paths under _main in BANK1

    None.

Critical Paths under _main in BANK2

    None.

Critical Paths under _main in BANK3

    None.

Critical Paths under _main in BANK4

    None.

Critical Paths under _main in BANK5

    None.

Critical Paths under _main in BANK6

    None.

Critical Paths under _main in BANK7

    None.

Critical Paths under _main in BANK8

    None.

Critical Paths under _main in BANK9

    None.

Critical Paths under _main in BANK10

    None.

Critical Paths under _main in BANK11

    None.

Critical Paths under _main in BANK12

    None.

Call Graph Tables:

 ---------------------------------------------------------------------------------
 (Depth) Function   	        Calls       Base Space   Used Autos Params    Refs
 ---------------------------------------------------------------------------------
 (0) _main                                                 5     5      0    6886
                                             52 BANK0      5     5      0
                  _ADC_GetConversion
                  _SYSTEM_Initialize
                      _Segments_Init
                       _Segments_Set
                            ___aldiv
                            ___almod
                            ___fldiv
                            ___flmul
                            ___fltol
                           ___xxtofl
 ---------------------------------------------------------------------------------
 (1) ___xxtofl                                            14    10      4     398
                                              0 COMMON    14    10      4
 ---------------------------------------------------------------------------------
 (1) ___fltol                                             11     7      4     305
                                             26 BANK0     11     7      4
                            ___flmul (ARG)
 ---------------------------------------------------------------------------------
 (1) ___flmul                                             26    18      8    2569
                                              0 BANK0     26    18      8
                          __Umul8_16
                           ___xxtofl (ARG)
 ---------------------------------------------------------------------------------
 (2) __Umul8_16                                            9     7      2     799
                                              0 COMMON     9     7      2
 ---------------------------------------------------------------------------------
 (1) ___fldiv                                             26    18      8    1273
                                             26 BANK0     26    18      8
                            ___flmul (ARG)
                           ___xxtofl (ARG)
 ---------------------------------------------------------------------------------
 (1) ___almod                                             11     3      8     752
                                              9 COMMON     3     3      0
                                              6 BANK0      8     0      8
                            ___aldiv (ARG)
 ---------------------------------------------------------------------------------
 (1) ___aldiv                                             15     7      8     756
                                              0 COMMON     9     1      8
                                              0 BANK0      6     6      0
 ---------------------------------------------------------------------------------
 (1) _Segments_Set                                         4     0      4     674
                                             14 BANK0      4     0      4
                            ___aldiv (ARG)
                            ___almod (ARG)
 ---------------------------------------------------------------------------------
 (1) _Segments_Init                                        5     5      0     114
                                              0 COMMON     5     5      0
 ---------------------------------------------------------------------------------
 (1) _SYSTEM_Initialize                                    0     0      0       0
                     _ADC_Initialize
              _OSCILLATOR_Initialize
             _PIN_MANAGER_Initialize
                     _WDT_Initialize
 ---------------------------------------------------------------------------------
 (2) _WDT_Initialize                                       0     0      0       0
 ---------------------------------------------------------------------------------
 (2) _PIN_MANAGER_Initialize                               0     0      0       0
 ---------------------------------------------------------------------------------
 (2) _OSCILLATOR_Initialize                                0     0      0       0
 ---------------------------------------------------------------------------------
 (2) _ADC_Initialize                                       0     0      0       0
 ---------------------------------------------------------------------------------
 (1) _ADC_GetConversion                                    4     2      2      22
                                              0 COMMON     4     2      2
 ---------------------------------------------------------------------------------
 Estimated maximum stack depth 2
 ---------------------------------------------------------------------------------

 Call Graph Graphs:

 _main (ROOT)
   _ADC_GetConversion
   _SYSTEM_Initialize
     _ADC_Initialize
     _OSCILLATOR_Initialize
     _PIN_MANAGER_Initialize
     _WDT_Initialize
   _Segments_Init
   _Segments_Set
     ___aldiv (ARG)
     ___almod (ARG)
       ___aldiv (ARG)
   ___aldiv
   ___almod
   ___fldiv
     ___flmul (ARG)
       __Umul8_16
       ___xxtofl (ARG)
     ___xxtofl (ARG)
   ___flmul
   ___fltol
     ___flmul (ARG)
   ___xxtofl

 Address spaces:
Name               Size   Autos  Total    Cost      Usage
BIGRAM             3F0      0       0       0        0.0%
EEDATA             100      0       0       0        0.0%
NULL                 0      0       0       0        0.0%
CODE                 0      0       0       0        0.0%
BITCOMMON            E      0       0       1        0.0%
BITSFR0              0      0       0       1        0.0%
SFR0                 0      0       0       1        0.0%
COMMON               E      E       E       2      100.0%
BITSFR1              0      0       0       2        0.0%
SFR1                 0      0       0       2        0.0%
BITSFR2              0      0       0       3        0.0%
SFR2                 0      0       0       3        0.0%
STACK                0      0       0       3        0.0%
BITBANK0            50      0       0       4        0.0%
BITSFR3              0      0       0       4        0.0%
SFR3                 0      0       0       4        0.0%
BANK0               50     39      4B       5       93.8%
BITSFR4              0      0       0       5        0.0%
SFR4                 0      0       0       5        0.0%
BITBANK1            50      0       0       6        0.0%
BITSFR5              0      0       0       6        0.0%
SFR5                 0      0       0       6        0.0%
BANK1               50      0       0       7        0.0%
BITSFR6              0      0       0       7        0.0%
SFR6                 0      0       0       7        0.0%
BITBANK2            50      0       0       8        0.0%
BITSFR7              0      0       0       8        0.0%
SFR7                 0      0       0       8        0.0%
BANK2               50      0       0       9        0.0%
BITSFR8              0      0       0       9        0.0%
SFR8                 0      0       0       9        0.0%
BITBANK3            50      0       0      10        0.0%
BITSFR9              0      0       0      10        0.0%
SFR9                 0      0       0      10        0.0%
BANK3               50      0       0      11        0.0%
BITSFR10             0      0       0      11        0.0%
SFR10                0      0       0      11        0.0%
BITBANK4            50      0       0      12        0.0%
BITSFR11             0      0       0      12        0.0%
SFR11                0      0       0      12        0.0%
BANK4               50      0       0      13        0.0%
BITSFR12             0      0       0      13        0.0%
SFR12                0      0       0      13        0.0%
BITBANK5            50      0       0      14        0.0%
BITSFR13             0      0       0      14        0.0%
SFR13                0      0       0      14        0.0%
BANK5               50      0       0      15        0.0%
BITSFR14             0      0       0      15        0.0%
SFR14                0      0       0      15        0.0%
BITBANK6            50      0       0      16        0.0%
BITSFR15             0      0       0      16        0.0%
SFR15                0      0       0      16        0.0%
BANK6               50      0       0      17        0.0%
BITSFR16             0      0       0      17        0.0%
SFR16                0      0       0      17        0.0%
BITBANK7            50      0       0      18        0.0%
BITSFR17             0      0       0      18        0.0%
SFR17                0      0       0      18        0.0%
BANK7               50      0       0      19        0.0%
BITSFR18             0      0       0      19        0.0%
SFR18                0      0       0      19        0.0%
BITSFR19             0      0       0      20        0.0%
SFR19                0      0       0      20        0.0%
ABS                  0      0      59      20        0.0%
BITBANK8            50      0       0      21        0.0%
BITSFR20             0      0       0      21        0.0%
SFR20                0      0       0      21        0.0%
BANK8               50      0       0      22        0.0%
BITSFR21             0      0       0      22        0.0%
SFR21                0      0       0      22        0.0%
BITBANK9            50      0       0      23        0.0%
BITSFR22             0      0       0      23        0.0%
SFR22                0      0       0      23        0.0%
BANK9               50      0       0      24        0.0%
BITSFR23             0      0       0      24        0.0%
SFR23                0      0       0      24        0.0%
BITBANK10           50      0       0      25        0.0%
BITSFR24             0      0       0      25        0.0%
SFR24                0      0       0      25        0.0%
BANK10              50      0       0      26        0.0%
BITSFR25             0      0       0      26        0.0%
SFR25                0      0       0      26        0.0%
BITBANK11           50      0       0      27        0.0%
BITSFR26             0      0       0      27        0.0%
SFR26                0      0       0      27        0.0%
BANK11              50      0       0      28        0.0%
BITSFR27             0      0       0      28        0.0%
SFR27                0      0       0      28        0.0%
BITBANK12           30      0       0      29        0.0%
BITSFR28             0      0       0      29        0.0%
SFR28                0      0       0      29        0.0%
BANK12              30      0       0      30        0.0%
BITSFR29             0      0       0      30        0.0%
SFR29                0      0       0      30        0.0%
BITSFR30             0      0       0      31        0.0%
SFR30                0      0       0      31        0.0%
DATA                 0      0      59      31        0.0%
BITSFR31             0      0       0      32        0.0%
SFR31                0      0       0      32        0.0%


Microchip Technology PIC Macro Assembler V2.36 build 20220127204148 
Symbol Table                                                                                   Fri Oct 18 13:48:51 2024

                  ___fldiv@aexp 0053                    ___fldiv@bexp 0052                    ___fldiv@sign 004B  
                            l31 0FB9                              l53 0F9F                              l56 000A  
                            l91 001D                              l59 0F84                              l76 0F92  
                            l94 0025             __Umul8_16@word_mpld 0076                             l152 0FD7  
                           l137 02A3                             l155 0FDA                             l148 005E  
                           l157 0FDC                             l501 00D3                             l511 00D3  
                           l372 0163                             l508 00BE                             l382 01DF  
                           l710 0768                             l704 07EC                             l385 00E7  
                           l395 014F                             l723 0FEF                             l716 07E0  
                           l725 0FFF                             l750 028B                             l680 0517  
                           l664 0439                             l761 0257                             l666 0595  
                           l762 0263                             l754 023D                             l748 0202  
                           l685 0563                             l686 057D                             l688 058C  
                           _seg 1000                             _num 0065                             wreg 0009  
                  ___flmul@aexp 0032                    ___flmul@bexp 0033                    ___flmul@sign 002D  
                  ___flmul@temp 0038                    ___flmul@prod 0034                    ___fltol@exp1 0044  
                          l1341 0FA5                            l1421 0049                            l1405 002A  
                          l1501 013C                            l1351 0FB4                            l1343 0FA8  
                          l1423 0056                            l1415 003B                            l1407 0035  
                          l1431 0FC6                            l1503 0147                            l1361 0008  
                          l1353 0FB5                            l1345 0FAA                            l1425 005A  
                          l1417 0042                            l1409 0037                            l1433 0FD0  
                          l1441 0167                            l1601 0480                            l1521 0092  
                          l1513 0074                            l1355 0FB7                            l1347 0FAC  
                          l1339 0FA0                            l1363 0F81                            l1419 0045  
                          l1427 0FBA                            l1451 0189                            l1443 0172  
                          l1435 0150                            l1611 04A5                            l1603 0488  
                          l1371 0FDE                            l1523 0096                            l1531 00AE  
                          l1515 0087                            l1507 005F                            l1365 0F8B  
                          l1357 0004                            l1349 0FB2                            l1429 0FBC  
                          l1461 01B9                            l1453 0194                            l1445 0176  
                          l1437 0152                            l1621 04C4                            l1613 04A9  
                          l1605 0490                            l1381 0FFB                            l1373 0FE0  
                          l1701 05C1                            l1541 00C8                            l1517 0088  
                          l1509 006B                            l1391 0017                            l1367 0F8E  
                          l1359 0007                            l1471 01D7                            l1463 01BA  
                          l1455 0198                            l1447 017E                            l1439 0156  
                          l1631 04E0                            l1623 04CC                            l1615 04AA  
                          l1607 0492                            l1551 03F1                            l1543 03E2  
                          l1375 0FE7                            l1711 05D4                            l1703 05C6  
                          l1519 0090                            l1393 001B                            l1369 0F8F  
                          l1385 0F93                            l1465 01C1                            l1457 019F  
                          l1449 0186                            l1481 00EB                            l1633 04E7  
                          l1641 04F7                            l1609 0497                            l1617 04B1  
                          l1625 04D0                            l1553 03F6                            l1561 0406  
                          l1545 03E8                            l1377 0FEB                            l1801 079A  
                          l1721 05F0                            l1713 05D9                            l1705 05CA  
                          l1537 00B5                            l1529 009E                            l1395 0021  
                          l1387 000C                            l1459 01B1                            l1467 01C7  
                          l1491 0110                            l1483 00F6                            l1475 00D4  
                          l1643 04FB                            l1635 04EB                            l1627 04D6  
                          l1619 04C3                            l1571 041C                            l1563 040E  
                          l1555 03FB                            l1547 03EC                            l1379 0FF6  
                          l1811 07CA                            l1803 07A7                            l1731 0618  
                          l1723 05F5                            l1715 05E1                            l1707 05CE  
                          l1539 00C3                            l1389 0016                            l1469 01CC  
                          l1493 0122                            l1485 00FE                            l1477 00D5  
                          l1661 0545                            l1653 051C                            l1645 04FC  
                          l1637 04EC                            l1629 04DE                            l1573 0421  
                          l1581 0431                            l1565 0413                            l1557 0403  
                          l1549 03F0                            l1813 07D7                            l1805 07B1  
                          l1741 0673                            l1733 0632                            l1717 05E3  
                          l1709 05CF                            l1399 0026                            l1495 012A  
                          l1487 0101                            l1479 00DA                            l1671 057C  
                          l1655 0521                            l1663 0549                            l1647 0500  
                          l1639 04F3                            l1583 0441                            l1591 045A  
                          l1575 0426                            l1567 0417                            l1559 0404  
                          l1815 07DB                            l1807 07BF                            l1751 06A2  
                          l1743 067A                            l1735 063F                            l1727 05FE  
                          l1719 05EB                            l1831 020A                            l1823 01E1  
                          l1497 0131                            l1489 010C                            l1673 0582  
                          l1665 0556                            l1657 0529                            l1649 0514  
                          l1593 045F                            l1585 044D                            l1577 042E  
                          l1569 041B                            l1817 07DC                            l1809 07C8  
                          l1761 06F2                            l1753 06B6                            l1745 0687  
                          l1737 0659                            l1729 060B                            l1841 022A  
                          l1825 01E6                            l1499 0137                            l1675 0586  
                          l1667 0571                            l1659 052D                            l1587 0451  
                          l1579 042F                            l1819 07E4                            l1771 0738  
                          l1763 0707                            l1755 06BD                            l1747 068E  
                          l1739 0666                            l1691 05A5                            l1683 0596  
                          l1851 0251                            l1843 022E                            l1835 0213  
                          l1827 01EA                            l1677 0588                            l1669 0574  
                          l1597 0468                            l1781 074C                            l1773 073C  
                          l1765 071E                            l1757 06D1                            l1749 069B  
                          l1693 05AA                            l1685 059C                            l1861 0282  
                          l1853 025B                            l1845 0236                            l1837 0218  
                          l1829 01FA                            l1599 0478                            l1791 076D  
                          l1783 074D                            l1775 073D                            l1767 0725  
                          l1759 06DE                            l1695 05AF                            l1687 05A0  
                          l1863 0283                            l1855 0265                            l1847 0244  
                          l1839 0223                            l1871 0292                            l1793 0772  
                          l1785 0751                            l1777 0744                            l1769 0731  
                          l1697 05B7                            l1689 05A4                            l1857 0279  
                          l1849 024D                            l1881 0361                            l1873 029A  
                          l1795 077A                            l1787 0765                            l1779 0748  
                          l1699 05B9                            l1859 027E                            l1891 03D0  
                          l1883 036A                            l1875 0306                            l1867 028C  
                          l1797 077E                            l1893 03D5                            l1885 039E  
                          l1877 0324                            l1869 028F                            l1799 0796  
                          l1895 03DB                            l1887 03A7                            l1879 032D  
                          l1889 03C7                            u1100 0FFB                            u1101 0FFA  
                          u1110 0021                            u1111 0020                            u1120 0056  
                          u2000 01EA                            u1121 0055                            u2001 01E9  
                          u1130 005E                            u1210 01B1                            u2010 020A  
                          u1131 005D                            u1211 01B0                            u2011 0209  
                          u1140 0FD7                            u1300 0122                            u2100 026F  
                          u1125 0052                            u1141 0FD6                            u1205 0199  
                          u1301 0121                            u1230 01C7                            u1150 0156  
                          u2110 027E                            u2030 0229                            u1231 01C6  
                          u1215 01AD                            u1151 0155                            u2111 027D  
                          u2031 0228                            u1240 01CC                            u1160 0167  
                          u1320 0137                            u1080 0FEB                            u1400 00B4  
                          u2120 0282                            u1241 01CB                            u1225 01BB  
                          u1161 0166                            u1321 0136                            u1305 011E  
                          u1081 0FEA                            u1401 00B3                            u2121 0281  
                          u2105 026B                            u2025 021D                            u1170 0186  
                          u1330 013C                            u1250 00DA                            u2050 0243  
                          u2130 029A                            u1171 0185                            u1331 013B  
                          u1315 012B                            u1251 00D9                            u2051 0242  
                          u2131 0299                            u1260 00EB                            u1500 0441  
                          u1420 00C3                            u1340 006B                            u2140 03DB  
                          u1261 00EA                            u1501 0440                            u1421 00C2  
                          u1341 006A                            u2045 0237                            u2141 03DA  
                          _LATA 010C                            u1190 0198                            u1270 00FE  
                          u1510 045F                            u1430 00C8                            u1350 0081  
                          u2070 0251                            _LATB 010D                            u2207 0018  
                          u1191 0197                            u1271 00FD                            u1511 045E  
                          u1095 0FF0                            u1431 00C7                            u1415 00B6  
                          u2071 0250                            _LATC 010E                            u1520 0497  
                          u1440 03F0                            u1360 0096                            u2080 0257  
                          u1185 018A                            u1521 0496                            u1441 03EF  
                          u1361 0095                            u2081 0256                            u2065 0247  
                          _LATE 0110                            u1290 0110                            u1610 04EB  
                          u1450 03F6                            u1370 009D                            u2090 025B  
                          u1291 010F                            u1611 04EA                            u1451 03F5  
                          u1371 009C                            u1355 007D                            u2091 025A  
                          u1700 0556                            u1460 03FB                            u1285 0102  
                          u1701 0555                            u1605 04E1                            u1461 03FA  
                          u2157 0328                            u1710 0571                            u1630 04FB  
                          u1550 04A9                            u1470 041B                            u1390 00AD  
                          u1711 0570                            u1631 04FA                            u1551 04A8  
                          u1535 0498                            u1471 041A                            u1391 00AC  
                          u2167 0365                            u1720 0586                            u1640 0500  
                          u1480 0421                            u1800 05F5                            u1721 0585  
                          u1705 0552                            u1641 04FF                            u1625 04ED  
                          u1545 049F                            u1481 0420                            u1801 05F4  
                          u1385 009F                            u2177 03A2                            u1650 0514  
                          u1570 04C3                            u1490 0426                            u1730 05A4  
                          u1715 056D                            u1651 0513                            u1571 04C2  
                          u1491 0425                            u1731 05A3                            u2187 03CB  
                          u1660 051B                            u1580 04D6                            u1900 0751  
                          u1740 05AA                            u2197 003E                            u1661 051A  
                          u1581 04D5                            u1565 04AB                            u1901 0750  
                          u1741 05A9                            u1670 0521                            u1590 04DE  
                          u1910 0765                            u1830 06FD                            u1750 05AF  
                          u1671 0520                            u1591 04DD                            u1575 04BF  
                          u1911 0764                            u1815 0674                            u1751 05AE  
                          u1680 052D                            u1920 076C                            u1840 0714  
                          u1760 05CE                            u1681 052C                            u1921 076B  
                          u1825 06A3                            u1761 05CD                            u1690 053B  
                          u1930 0772                            u1770 05D4                            u1931 0771  
                          u1835 06F9                            u1771 05D3                            u1940 077E  
                          u1780 05D9                            u1941 077D                            u1845 0710  
                          u1781 05D8                            u1950 078C                            u1870 073C  
                          u1790 05F0                            u1695 0537                            u1871 073B  
                          u1855 071F                            u1791 05EF                            u1960 07A7  
                          u1961 07A6                            u1865 0732                            u1970 07BF  
                          u1890 074C                            u1971 07BE                            u1955 0788  
                          u1891 074B                            u1980 07DB                            u1981 07DA  
                          u1965 07A3                            u1885 073E                            u1990 01E6  
                          u1975 07BB                            u1991 01E5                            _WPUB 020D  
                          _WPUE 0210                            _main 028C                            fsr0h 0005  
                          indf0 0000                            fsr0l 0004                            btemp 007E  
                          start 0002                 ___fldiv@new_exp 004C   __end_of_OSCILLATOR_Initialize 000B  
                 ___fltol@sign1 0043                 __end_of___aldiv 01E0                 __end_of___almod 0150  
                         ?_main 0070                 __end_of___fldiv 0596                 __end_of___flmul 07ED  
               __end_of___fltol 00D4                           _PORTB 000D                           _PORTC 000E  
                         _TRISA 008C                           _TRISB 008D                           _TRISC 008E  
                         _TRISE 0090                           _digit 100A                  _WDT_Initialize 0F81  
                         status 0003                           wtemp0 007E                 __initialization 07ED  
                  __end_of_main 03E2                          ??_main 0054          __end_of_WDT_Initialize 0F85  
                        _ADCON0 009D                          _ADCON1 009E                          _ADRESH 009C  
                        _ADRESL 009B                          _APFCON 011D                          _AD_CNT 0069  
                        _ANSELA 018C                          _ANSELB 018D                          _BORCON 0116  
                        _OSCCON 0099                          _WDTCON 0097                __end_of___xxtofl 028C  
                     ??___aldiv 0078                       ??___almod 0079                       ??___fldiv 0042  
                     ??___flmul 0028                       ??___fltol 003E                          main@fv 0055  
               ?_WDT_Initialize 0070        ADC_GetConversion@channel 0073                    ___xxtofl@arg 007A  
                  ___xxtofl@exp 0079               _SYSTEM_Initialize 0F93                    ___xxtofl@val 0070  
       __end_of__initialization 07FD              ?_SYSTEM_Initialize 0070                      ___fltol@f1 003A  
                 ?_Segments_Set 002E                  __pcstackCOMMON 0070                    __pidataBANK0 0F7F  
           ??_SYSTEM_Initialize 0070                   __end_of_digit 100E                  _OPTION_REGbits 0095  
     __end_of_SYSTEM_Initialize 0FA0                      __pbssBANK0 0059                  ??_Segments_Set 007C  
             __end_of__Umul8_16 1000                      __pmaintext 028C                       ?___xxtofl 0070  
                       _OSCTUNE 0098                  Segments_Init@i 0071                  Segments_Init@z 0073  
          _ADC_InterruptHandler 0067                         ___aldiv 0150                         ___almod 00D4  
                       ___fldiv 03E2                         ___flmul 0596                         _Voltage 0059  
                       ___fltol 005F                         __ptext1 01E0                         __ptext2 005F  
                       __ptext3 0596                         __ptext4 0FDD                         __ptext5 03E2  
                       __ptext6 00D4                         __ptext7 0150                         __ptext8 0FBA  
                       __ptext9 0026           _OSCILLATOR_Initialize 0004                      ??___xxtofl 0074  
              ___aldiv@dividend 0074        ??_PIN_MANAGER_Initialize 0070                         clrloop0 0F86  
          end_of_initialization 07FD           Segments_Set@fnc_digit 0030                   _Segments_Init 0026  
              ___aldiv@quotient 0022                ??_WDT_Initialize 0070            __end_of_Segments_Set 0FDD  
                 ___xxtofl@sign 0078                     ___fldiv@grs 004E                     ___fldiv@rem 0047  
                   ___flmul@grs 002E                  ?_Segments_Init 0070                  _ADC_Initialize 0F8B  
        ?_OSCILLATOR_Initialize 0070             start_initialization 07ED                     __end_of_seg 100A  
        __end_of_ADC_Initialize 0F93                       __Umul8_16 0FDD                     __pdataBANK0 0069  
                     ___fldiv@a 003A                       ___fldiv@b 003E                       ___flmul@a 0024  
                     ___flmul@b 0020                       ___latbits 0003                   __pcstackBANK0 0020  
               ??_Segments_Init 0070          _PIN_MANAGER_Initialize 0FA0                        ?___aldiv 0070  
                      ?___almod 0026                        ?___fldiv 003A                        ?___flmul 0020  
                      ?___fltol 003A                      ?__Umul8_16 0070                 ?_ADC_Initialize 0070  
              ___almod@dividend 002A                 ___aldiv@divisor 0070                 ___aldiv@counter 0020  
                      _LATCbits 010E                       clear_ram0 0F85                    _Segments_Set 0FBA  
                 _digit_counter 0061                      _ADCON0bits 009D                     _count_scale 005F  
             _ADC_GetConversion 000B                      _ADC_result 005D         ??_OSCILLATOR_Initialize 0070  
                   ??__Umul8_16 0072              ?_ADC_GetConversion 0070             ??_ADC_GetConversion 0072  
                      ___xxtofl 01E0                        __ptext10 0F93                        __ptext11 0F81  
                      __ptext12 0FA0                        __ptext13 0004                        __ptext14 0F8B  
                      __ptext15 000B                 ___almod@divisor 0026                 ___almod@counter 007A  
     __end_of_ADC_GetConversion 0026          Segments_Set@fnc_number 002E         ?_PIN_MANAGER_Initialize 0070  
              ??_ADC_Initialize 0070                   __pstringtext1 1000                   __pstringtext2 100A  
                   _num_counter 0063          __Umul8_16@multiplicand 0070                    ___aldiv@sign 0021  
__end_of_PIN_MANAGER_Initialize 0FBA                    ___almod@sign 007B            __Umul8_16@multiplier 0078  
         __end_of_Segments_Init 005F               __Umul8_16@product 0074  
